(dp0
S'alfalfa'
p1
(lp2
S'1 '
p3
ag3
asS'olive oil'
p4
(lp5
S'1/4 cup '
p6
aS'2 tablespoons '
p7
ag6
asS'bell pepper'
p8
(lp9
S'1 small '
p10
aS'1 '
p11
ag10
asS'hard boiled egg'
p12
(lp13
S'8 '
p14
ag14
asS'kale'
p15
(lp16
S'1 '
p17
aS'1/4 cup '
p18
ag17
asS'cheddar'
p19
(lp20
S'2 cups '
p21
aS'8 ounces '
p22
ag21
asS'sesame oil'
p23
(lp24
S'2 teaspoons '
p25
aS'1 tablespoon '
p26
ag25
asS'fennel'
p27
(lp28
S'1/2 teaspoon '
p29
aS'1 large 2 small '
p30
ag29
asS'kidney beans'
p31
(lp32
S'2 cups '
p33
aS'1 '
p34
ag33
asS'parmesan'
p35
(lp36
S'1 cup '
p37
aS'1/2 cup '
p38
ag37
asS'chicken'
p39
(lp40
S'4 cups '
p41
aS'2 cups '
p42
ag41
asS'spam'
p43
NsS'milk'
p44
(lp45
S'1 cup '
p46
aS'1/2 cup '
p47
ag46
asS'white wine'
p48
(lp49
S'2 tablespoons '
p50
aS'1 cup '
p51
ag50
asS'cilantro'
p52
(lp53
S'1/4 cup '
p54
aS'2 tablespoons '
p55
ag54
asS'ham'
p56
(lp57
S'3 tablespoons '
p58
aS'9 1 '
p59
ag58
asS'avocado'
p60
(lp61
S'1 '
p62
aS'1 small '
p63
ag62
asS'cayenne pepper'
p64
(lp65
S'1/2 teaspoon '
p66
aS'1/4 teaspoon '
p67
ag66
asS'celery'
p68
(lp69
S'2 '
p70
aS'1/2 cup '
p71
ag70
asS'cashews'
p72
(lp73
S'1/2 cup '
p74
ag74
asS'cranberries'
p75
(lp76
S'1/4 cup '
p77
aS'1/2 cup one '
p78
ag77
asS'orange'
p79
(lp80
S'1/4 cup '
p81
aS'1 '
p82
ag81
asS'peanuts'
p83
(lp84
S'2 tablespoons '
p85
aS'1/4 cup '
p86
ag85
asS'head cheese'
p87
NsS'rice'
p88
(lp89
S'1 tablespoon '
p90
aS'4 cups '
p91
ag90
asS'glass noodles'
p92
NsS'feta cheese'
p93
(lp94
S'1 cup '
p95
aS'1 '
p96
ag95
asS'anchovy'
p97
(lp98
S'1 small '
p99
aS'16 '
p100
ag99
asS'pecans'
p101
(lp102
S'3 ounces '
p103
aS'1/2 cup '
p104
ag103
asS'cobra eggs'
p105
NsS'goat cheese'
p106
(lp107
S'4 ounces '
p108
aS'1/4 cup 2 ounces '
p109
ag108
asS'watermelon'
p110
(lp111
S'2 cups '
p112
aS'1 1/4 cups '
p113
ag112
asS'jack'
p114
(lp115
S'1/2 cup '
p116
aS'8 2 3 ounces '
p117
ag116
asS'tobasco'
p118
NsS'jicama'
p119
(lp120
S'1 '
p121
aS'1 large '
p122
ag121
asS'seaweed'
p123
NsS'hot mustard powder'
p124
NsS'onion'
p125
(lp126
S'1 '
p127
aS'1/2 '
p128
ag127
asS'thyme'
p129
(lp130
S'1 1/2 teaspoons '
p131
aS'1 teaspoon '
p132
ag131
asS'asparagus'
p133
(lp134
S'12 ounces 1/4 1/2-inch pieces '
p135
aS'1 1-pound ) '
p136
ag135
asS'cumin'
p137
(lp138
S'1/2 teaspoon '
p139
aS'1 tablespoon '
p140
ag139
asS'roast'
p141
(lp142
S'2 tablespoons '
p143
aS'1/2 cup '
p144
ag143
asS'blood pudding'
p145
NsS'steak'
p146
(lp147
S'2 8 225 '
p148
aS'2 tablespoons '
p149
ag148
asS'rosemary'
p150
(lp151
S'1 '
p152
aS'1/2 teaspoon '
p153
ag152
asS'vegetable broth'
p154
(lp155
S'1/2 cup '
p156
aS'2 '
p157
ag156
asS'artichoke'
p158
(lp159
S'1 cup '
p160
aS'1 13 3/4-ounce ) '
p161
ag160
asS'pork'
p162
(lp163
S'6 ounces '
p164
aS'3 ounces '
p165
ag164
asS'clams'
p166
(lp167
S'2 6 '
p168
ag168
asS'fish'
p169
(lp170
S'6 6-8 ounce '
p171
ag171
asS'bacon'
p172
(lp173
S'1 '
p174
aS'6 pieces '
p175
ag174
asS'pepper'
p176
(lp177
S'1/2 teaspoon '
p178
aS'1 teaspoon '
p179
ag178
asS'almonds'
p180
(lp181
S'1/4 cup '
p182
aS'2 tablespoons '
p183
ag182
asS'crab meat'
p184
NsS'cricket flour'
p185
NsS'pickled onions'
p186
NsS'noodles'
p187
(lp188
S'1 '
p189
aS'2 '
p190
ag189
asS'lentils'
p191
(lp192
S'1 3/4 cups '
p193
ag193
asS'sausage'
p194
(lp195
S'1 1/2 pounds '
p196
aS'1 '
p197
ag196
asS'honeydew'
p198
(lp199
S'2 cups '
p200
ag200
asS'chili powder'
p201
(lp202
S'pinch '
p203
aS'1 tablespoon '
p204
ag203
asS'jalapeno'
p205
(lp206
S'1 '
p207
aS'1 large small '
p208
ag207
asS'chicken stock'
p209
(lp210
S'4 cups '
p211
aS'8 cups '
p212
ag211
asS'green onions'
p213
(lp214
S'2 tablespoons '
p215
aS'12 '
p216
ag215
asS'elbows'
p217
NsS'chickpeas'
p218
(lp219
S'1 15 '
p220
aS'1 15 1/2-ounce ) '
p221
ag220
asS'mussels'
p222
NsS'pomegranate seeds'
p223
NsS'croutons'
p224
(lp225
S'1/2 cup '
p226
ag226
asS'basil'
p227
(lp228
S'1/4 cup '
p229
aS'1/2 cup '
p230
ag229
asS'cloves'
p231
(lp232
S'2 '
p233
aS'3 '
p234
ag233
asS'cantaloupe'
p235
(lp236
S'2 cups '
p237
aS'2 cups small '
p238
ag237
asS'cauliflower'
p239
(lp240
S'1 1/2 1-inch pieces '
p241
aS'1 cup small '
p242
ag241
asS'salmon'
p243
(lp244
S'2 cups '
p245
aS'4 6 1 1/2 '
p246
ag245
asS'corn'
p247
(lp248
S'1 '
p249
aS'1 cup '
p250
ag249
asS'walnuts'
p251
(lp252
S'1/2 cup '
p253
aS'1/3 cup '
p254
ag253
asS'water'
p255
(lp256
S'2 cups '
p257
aS'1/4 cup '
p258
ag257
asS'salami'
p259
(lp260
S'1/2 cup 3 ounces '
p261
aS'5 ounces '
p262
ag261
asS'grapes'
p263
(lp264
S'1 cup '
p265
aS'2 cups '
p266
ag265
asS'pine nuts'
p267
(lp268
S'2 tablespoons '
p269
aS'1/4 cup '
p270
ag269
asS'pasta'
p271
(lp272
S'1 '
p273
aS'12 ounces '
p274
ag273
asS'mozzarella'
p275
(lp276
S'1 cup '
p277
aS'1/2 cup 4 ounces '
p278
ag277
asS'dates'
p279
(lp280
S'12 '
p281
aS'1/4 cup '
p282
ag281
asS'sour cream'
p283
(lp284
S'1/2 cup '
p285
aS'1 cup '
p286
ag285
asS'snails'
p287
NsS'canola oil'
p288
(lp289
S'2 tablespoons '
p290
aS'1/4 cup '
p291
ag290
asS'baby corn'
p292
NsS'snow peas'
p293
NsS'garbanzo beans'
p294
(lp295
S'1 '
p296
aS'1 15 1/2-ounce ) '
p297
ag296
asS'chili sauce'
p298
(lp299
S'2 teaspoons '
p300
aS'1 1/2 teaspoons '
p301
ag300
asS'miracle fruit'
p302
NsS'rice noodles'
p303
NsS'vegetable stock'
p304
(lp305
S'2 cups '
p306
aS'1 cup '
p307
ag306
asS'cinnamon'
p308
(lp309
S'pinch '
p310
aS'1 teaspoon '
p311
ag310
asS'eggplant'
p312
(lp313
S'1 small '
p314
aS'2 cups small '
p315
ag314
asS'beef broth'
p316
(lp317
S'2 cups '
p318
ag318
asS'garlic'
p319
(lp320
S'2 '
p321
aS'1 '
p322
ag321
asS'curry'
p323
(lp324
S'1 1/2 tablespoons '
p325
aS'1 1/2 teaspoons '
p326
ag325
asS'vegetable oil'
p327
(lp328
S'2 tablespoons '
p329
aS'1/2 cup '
p330
ag329
asS'cheese'
p331
(lp332
S'1/2 cup '
p333
aS'1/4 cup '
p334
ag333
asS'apple'
p335
(lp336
S'1 '
p337
aS'1 tablespoon '
p338
ag337
asS'red onion'
p339
(lp340
S'1/2 '
p341
aS'1/2 cup '
p342
ag341
asS'tofu'
p343
(lp344
S'12 ounces 8 '
p345
aS'1/4 '
p346
ag345
asS'mushrooms'
p347
(lp348
S'1 '
p349
aS'1 1/2 pounds '
p350
ag349
asS'cherry tomatoes'
p351
(lp352
S'1/2 cup '
p353
aS'1 pint '
p354
ag353
asS'brown sugar'
p355
(lp356
S'1/4 cup '
p357
aS'2 tablespoons '
p358
ag357
asS'marmite'
p359
NsS'cabbage'
p360
(lp361
S'1 cup '
p362
aS'1/2 ( 6 cups '
p363
ag362
asS'lime'
p364
(lp365
S'1 '
p366
aS'2 '
p367
ag366
asS'turkey'
p368
(lp369
S'1 1/4 pounds '
p370
aS'1/2 cup 3 ounces '
p371
ag370
asS'blue cheese'
p372
(lp373
S'1/4 cup 2 ounces '
p374
aS'1/2 cup '
p375
ag374
asS'olives'
p376
(lp377
S'1 cup '
p378
aS'1/2 cup '
p379
ag378
asS'cheez whiz'
p380
NsS'yellow onion'
p381
(lp382
S'1 '
p383
aS'1 cup '
p384
ag383
asS'beef'
p385
(lp386
S'2 cups '
p387
aS'1 '
p388
ag387
asS'spinach'
p389
(lp390
S'8 ounces '
p391
aS'3 cups '
p392
ag391
asS'bean sprouts'
p393
NsS'provolone'
p394
(lp395
S'1/4 cup '
p396
ag396
asS'parsley'
p397
(lp398
S'2 tablespoons '
p399
aS'1/4 cup '
p400
ag399
asS'scallion'
p401
(lp402
S'2 '
p403
aS'4 '
p404
ag403
asS'yam'
p405
(lp406
S'1 large small '
p407
aS'2 '
p408
ag407
asS'water cress'
p409
NsS'rasins'
p410
NsS'egg noodles'
p411
(lp412
S'1 '
p413
aS'one 12-ounce '
p414
ag413
asS'tortilla strips'
p415
(lp416
S'1 teaspoon '
p417
ag417
asS'kiwi'
p418
(lp419
S'5 2 1/2 cups '
p420
aS'3 '
p421
ag420
asS'tomato'
p422
(lp423
S'1 '
p424
aS'2 '
p425
ag424
asS'butternut squash'
p426
(lp427
S'1 '
p428
aS'1 large 1 1/2 2 pounds '
p429
ag428
asS'crispy noodles'
p430
NsS'lima beans'
p431
(lp432
S'1 1/2 pounds '
p433
aS'1 1 '
p434
ag433
asS'peppers'
p435
(lp436
S'1/4 cup '
p437
aS'1 cup '
p438
ag437
asS'strawberries'
p439
(lp440
S'2 cups '
p441
aS'1 cup 1 '
p442
ag441
asS'liver'
p443
(lp444
S'1/4 cup '
p445
aS'1/2 cup '
p446
ag445
asS'flowers'
p447
NsS'tomatillos'
p448
NsS'bow ties'
p449
NsS'frog legs'
p450
NsS'sweet potato'
p451
(lp452
S'1 large '
p453
aS'2 1/2 pounds 3 ) '
p454
ag453
asS'white onion'
p455
(lp456
S'1 small '
p457
ag457
asS'sriracha'
p458
(lp459
S'2 teaspoons '
p460
ag460
asS'cottage cheese'
p461
NsS'coconut'
p462
(lp463
S'2 cups '
p464
aS'2 tablespoons '
p465
ag464
asS'sirloin'
p466
(lp467
S'6 ounces '
p468
aS'2 8 225 '
p469
ag468
asS'carrots'
p470
(lp471
S'1 cup '
p472
aS'1/2 cup '
p473
ag472
asS'cricket'
p474
NsS'ginger'
p475
(lp476
S'1 tablespoon '
p477
aS'1 '
p478
ag477
asS'brussel sprouts'
p479
NsS'sunflower seeds'
p480
(lp481
S'1/4 cup '
p482
ag482
asS'penne'
p483
(lp484
S'1 '
p485
ag485
asS'sprouts'
p486
(lp487
S'1 '
p488
ag488
asS'shrimp'
p489
(lp490
S'1 '
p491
aS'32 '
p492
ag491
asS'onions'
p493
(lp494
S'2 '
p495
aS'1 cup '
p496
ag495
asS'beef tongue'
p497
NsS'cream'
p498
(lp499
S'1/2 cup '
p500
aS'1 cup '
p501
ag500
asS'sesame seeds'
p502
(lp503
S'3 tablespoons '
p504
ag504
asS'lemon'
p505
(lp506
S'1 '
p507
aS'1/2 '
p508
ag507
asS'mint'
p509
(lp510
S'1/4 cup '
p511
aS'1 '
p512
ag511
asS'chorizo'
p513
(lp514
S'2 '
p515
aS'1/2 '
p516
ag515
asS'saffron'
p517
(lp518
S'2 1/2 teaspoon '
p519
aS'6 8 '
p520
ag519
asS'mango'
p521
(lp522
S'1 '
p523
aS'1/2 cup '
p524
ag523
asS'tomatoes'
p525
(lp526
S'2 '
p527
aS'1 pint '
p528
ag527
asS'zucchini'
p529
(lp530
S'1 small '
p531
aS'2 '
p532
ag531
asS'coconut milk'
p533
(lp534
S'1/2 cup '
p535
ag535
asS'pumpkin seeds'
p536
(lp537
S'1/2 cup '
p538
aS'small 2 tablespoons '
p539
ag538
asS'bok choy'
p540
(lp541
S'1 '
p542
aS'1 small '
p543
ag542
asS'pear'
p544
(lp545
S'1 '
p546
aS'1 1/3 cups 8 ounces '
p547
ag546
asS'sweet peas'
p548
NsS'quinoa'
p549
(lp550
S'1 3/4 cups '
p551
aS'1 cup '
p552
ag551
asS'gorgonzola'
p553
(lp554
S'2 tablespoons '
p555
ag555
asS'cucumber'
p556
(lp557
S'1 '
p558
aS'1/2 '
p559
ag558
asS'couscous'
p560
(lp561
S'1 1/2 cups '
p562
aS'1 1-pound ) small '
p563
ag562
asS'tuna'
p564
(lp565
S'2 pounds '
p566
aS'2 5 1/2-ounce ) ( '
p567
ag566
asS'broccoli'
p568
(lp569
S'1 '
p570
aS'5 cups small '
p571
ag570
asS'butter'
p572
(lp573
S'3 tablespoons '
p574
aS'1 tablespoon '
p575
ag574
asS'radishes'
p576
(lp577
S'1 small '
p578
aS'12 ounces '
p579
ag578
asS'spaghetti squash'
p580
NsS'black eye peas'
p581
NsS'beets'
p582
(lp583
S'6 '
p584
aS'8 '
p585
ag584
asS'potato'
p586
(lp587
S'1 large '
p588
aS'1 large small '
p589
ag588
asS'soy sauce'
p590
(lp591
S'1 tablespoon '
p592
aS'4 tablespoons '
p593
ag592
asS'jalapenos'
p594
(lp595
S'3 tablespoons '
p596
aS'8 '
p597
ag596
asS'black beans'
p598
(lp599
S'1 '
p600
aS'1 14 ounces '
p601
ag600
asS'beef stock'
p602
(lp603
S'2 cups '
p604
ag604
asS'pineapple'
p605
(lp606
S'1 cup '
p607
aS'1 cup large '
p608
ag607
asS'chicken broth'
p609
(lp610
S'4 cups '
p611
aS'2 cups '
p612
ag611
asS'red wine'
p613
(lp614
S'2 tablespoons '
p615
aS'3 tablespoons '
p616
ag615
asS'egg'
p617
(lp618
S'1 '
p619
aS'2 large '
p620
ag619
as.