(dp0
S'alfalfa'
p1
(lp2
S'1 '
p3
ag3
asS'olive oil'
p4
(lp5
S'1/4 cup '
p6
aS'2 tablespoons '
p7
ag6
asS'bell pepper'
p8
(lp9
S'1 small '
p10
aS'1 '
p11
ag10
asS'mahi mahi fillets'
p12
NsS'hard boiled egg'
p13
(lp14
S'8 '
p15
ag15
asS'kale'
p16
(lp17
S'1 '
p18
aS'1 cup '
p19
ag18
asS'pepper flakes'
p20
(lp21
S'1 teaspoon '
p22
aS'1/2 teaspoon '
p23
ag22
asS'cheddar'
p24
(lp25
S'2 cups '
p26
aS'8 ounces '
p27
ag26
asS'sesame oil'
p28
(lp29
S'2 teaspoons '
p30
aS'1 tablespoon '
p31
ag30
asS'fennel'
p32
(lp33
S'1/2 teaspoon '
p34
aS'1 large 2 small '
p35
ag34
asS'kidney beans'
p36
(lp37
S'2 cups '
p38
aS'1 '
p39
ag38
asS'parmesan'
p40
(lp41
S'1 cup '
p42
aS'1/2 cup '
p43
ag42
asS'chicken'
p44
(lp45
S'4 cups '
p46
aS'2 cups '
p47
ag46
asS'spam'
p48
NsS'milk'
p49
(lp50
S'1 cup '
p51
aS'1/2 cup '
p52
ag51
asS'brie'
p53
NsS'dijon mustard'
p54
(lp55
S'2 teaspoons '
p56
aS'1 teaspoon '
p57
ag56
asS'white wine'
p58
(lp59
S'2 tablespoons '
p60
aS'1 cup '
p61
ag60
asS'cilantro'
p62
(lp63
S'1/4 cup '
p64
aS'2 tablespoons '
p65
ag64
asS'thai salad dressing'
p66
NsS'ham'
p67
(lp68
S'3 tablespoons '
p69
aS'9 1 '
p70
ag69
asS'pork shoulder'
p71
(lp72
S'6 ounces '
p73
ag73
asS'avocado'
p74
(lp75
S'1 '
p76
aS'1 small '
p77
ag76
asS'cayenne pepper'
p78
(lp79
S'1/2 teaspoon '
p80
aS'1/4 teaspoon '
p81
ag80
asS'celery'
p82
(lp83
S'2 '
p84
aS'1/2 cup '
p85
ag84
asS'pepperoncini'
p86
(lp87
S'6 '
p88
ag88
asS'pancetta'
p89
(lp90
S'4 ounces '
p91
ag91
asS'cashews'
p92
(lp93
S'1/2 cup '
p94
ag94
asS'cranberries'
p95
(lp96
S'1/4 cup '
p97
aS'1/2 cup one '
p98
ag97
asS'orange'
p99
(lp100
S'1/4 cup '
p101
aS'1 '
p102
ag101
asS'peanuts'
p103
(lp104
S'2 tablespoons '
p105
aS'1/4 cup '
p106
ag105
asS'head cheese'
p107
NsS'rice'
p108
(lp109
S'1 tablespoon '
p110
aS'4 cups '
p111
ag110
asS'glass noodles'
p112
NsS'feta cheese'
p113
(lp114
S'1 cup '
p115
aS'1 '
p116
ag115
asS'acorn squash'
p117
NsS'anchovy'
p118
(lp119
S'1 small '
p120
aS'16 '
p121
ag120
asS'adobo sauce'
p122
(lp123
S'1 '
p124
ag124
asS'pecans'
p125
(lp126
S'3 ounces '
p127
aS'1/2 cup '
p128
ag127
asS'genoa salami'
p129
NsS'sage'
p130
(lp131
S'1 1/2 pounds '
p132
aS'1 '
p133
ag132
asS'italian dressing'
p134
NsS'cobra eggs'
p135
NsS'goat cheese'
p136
(lp137
S'4 ounces '
p138
aS'1/4 cup 2 ounces '
p139
ag138
asS'watermelon'
p140
(lp141
S'2 cups '
p142
aS'1 1/4 cups '
p143
ag142
asS'jack'
p144
(lp145
S'1/2 cup '
p146
aS'8 2 3 ounces '
p147
ag146
asS'tobasco'
p148
NsS'romaine lettuce'
p149
(lp150
S'1 '
p151
aS'2 '
p152
ag151
asS'jicama'
p153
(lp154
S'1 '
p155
aS'1 large '
p156
ag155
asS'seaweed'
p157
NsS'ketchup'
p158
NsS'arugula'
p159
(lp160
S'2 cups '
p161
aS'6 cups '
p162
ag161
asS'red wine vinegar'
p163
(lp164
S'2 tablespoons '
p165
aS'3 tablespoons '
p166
ag165
asS'hot mustard powder'
p167
NsS'onion'
p168
(lp169
S'1 '
p170
aS'1/2 '
p171
ag170
asS'thyme'
p172
(lp173
S'1 1/2 teaspoons '
p174
aS'1 teaspoon '
p175
ag174
asS'asparagus'
p176
(lp177
S'12 ounces 1/4 1/2-inch pieces '
p178
aS'1 1-pound '
p179
ag178
asS'cumin'
p180
(lp181
S'1/2 teaspoon '
p182
aS'1 tablespoon '
p183
ag182
asS'caesar dressing'
p184
NsS'roast'
p185
(lp186
S'2 tablespoons '
p187
aS'1/2 cup '
p188
ag187
asS'blood pudding'
p189
NsS'hot mustard'
p190
(lp191
S'1/3 cup '
p192
ag192
asS'steak'
p193
(lp194
S'2 8 225 '
p195
aS'2 tablespoons '
p196
ag195
asS'rosemary'
p197
(lp198
S'1 '
p199
aS'1/2 teaspoon '
p200
ag199
asS'vegetable broth'
p201
(lp202
S'1/2 cup '
p203
aS'2 '
p204
ag203
asS'artichoke'
p205
(lp206
S'1 13 3/4-ounce '
p207
aS'1 cup '
p208
ag207
asS'anchovy paste'
p209
NsS'pork'
p210
(lp211
S'6 ounces '
p212
aS'3 ounces '
p213
ag212
asS'clams'
p214
(lp215
S'2 6 '
p216
ag216
asS'allspice'
p217
(lp218
S'1/2 teaspoon '
p219
aS'1 teaspoon '
p220
ag219
asS'fish'
p221
(lp222
S'6 6-8 ounce '
p223
ag223
asS'bacon'
p224
(lp225
S'1 '
p226
aS'6 pieces '
p227
ag226
asS'pepper'
p228
(lp229
S'1/2 teaspoon '
p230
aS'1 teaspoon '
p231
ag230
asS'almonds'
p232
(lp233
S'1/4 cup '
p234
aS'2 tablespoons '
p235
ag234
asS'crab meat'
p236
NsS'cricket flour'
p237
NsS'pickled onions'
p238
NsS'noodles'
p239
(lp240
S'1 '
p241
aS'2 '
p242
ag241
asS'lentils'
p243
(lp244
S'1 3/4 cups '
p245
ag245
asS'sausage'
p246
(lp247
S'1 1/2 pounds '
p248
aS'1 '
p249
ag248
asS'honeydew'
p250
(lp251
S'2 cups '
p252
ag252
asS'white vinegar'
p253
(lp254
S'2 tablespoons '
p255
aS'2 teaspoons '
p256
ag255
asS'chili powder'
p257
(lp258
S'pinch '
p259
aS'1 tablespoon '
p260
ag259
asS'jalapeno'
p261
(lp262
S'1 '
p263
aS'1 large small '
p264
ag263
asS'turkey bacon'
p265
NsS'chicken stock'
p266
(lp267
S'4 cups '
p268
aS'8 cups '
p269
ag268
asS'worcestershire sauce'
p270
(lp271
S'2 tablespoons 2 teaspoons '
p272
aS'1 1/2 teaspoons '
p273
ag272
asS'green onions'
p274
(lp275
S'2 tablespoons '
p276
aS'12 '
p277
ag276
asS'elbows'
p278
NsS'chickpeas'
p279
(lp280
S'1 15 '
p281
aS'1 '
p282
ag281
asS'mussels'
p283
NsS'pomegranate seeds'
p284
NsS'croutons'
p285
(lp286
S'1/2 cup '
p287
ag287
asS'basil'
p288
(lp289
S'1/4 cup '
p290
aS'1/2 cup '
p291
ag290
asS'cloves'
p292
(lp293
S'2 '
p294
aS'3 '
p295
ag294
asS'cantaloupe'
p296
(lp297
S'2 cups '
p298
aS'2 cups small '
p299
ag298
asS'cauliflower'
p300
(lp301
S'1 1/2 1-inch pieces '
p302
aS'1 cup small '
p303
ag302
asS'salmon'
p304
(lp305
S'2 cups '
p306
aS'4 6 1 1/2 '
p307
ag306
asS'corn'
p308
(lp309
S'1 '
p310
aS'1 cup '
p311
ag310
asS'balsamic vinegar'
p312
(lp313
S'2 tablespoons '
p314
aS'3 tablespoons '
p315
ag314
asS'walnuts'
p316
(lp317
S'1/2 cup '
p318
aS'1/3 cup '
p319
ag318
asS'water'
p320
(lp321
S'2 cups '
p322
aS'1/4 cup '
p323
ag322
asS'salami'
p324
(lp325
S'1/2 cup 3 ounces '
p326
aS'5 ounces '
p327
ag326
asS'grapes'
p328
(lp329
S'1 cup '
p330
aS'2 cups '
p331
ag330
asS'pine nuts'
p332
(lp333
S'2 tablespoons '
p334
aS'1/4 cup '
p335
ag334
asS'pasta'
p336
(lp337
S'1 '
p338
aS'1 1-pound small '
p339
ag338
asS'mozzarella'
p340
(lp341
S'1 cup '
p342
aS'1/2 cup 4 ounces '
p343
ag342
asS'broccolini'
p344
NsS'dates'
p345
(lp346
S'12 '
p347
aS'1/4 cup '
p348
ag347
asS'sour cream'
p349
(lp350
S'1/2 cup '
p351
aS'1 cup '
p352
ag351
asS'snails'
p353
NsS'canola oil'
p354
(lp355
S'2 tablespoons '
p356
aS'1/4 cup '
p357
ag356
asS'baby corn'
p358
NsS'potato chips'
p359
NsS'snow peas'
p360
NsS'garbanzo beans'
p361
(lp362
S'1 '
p363
aS'1 cup '
p364
ag363
asS'chili sauce'
p365
(lp366
S'2 teaspoons '
p367
aS'1 1/2 teaspoons '
p368
ag367
asS'miracle fruit'
p369
NsS'rice noodles'
p370
NsS'vegetable stock'
p371
(lp372
S'2 cups '
p373
aS'1 cup '
p374
ag373
asS'cinnamon'
p375
(lp376
S'pinch '
p377
aS'1 teaspoon '
p378
ag377
asS'eggplant'
p379
(lp380
S'1 small '
p381
aS'2 cups small '
p382
ag381
asS'beef broth'
p383
(lp384
S'2 cups '
p385
ag385
asS'garlic'
p386
(lp387
S'2 '
p388
aS'1 '
p389
ag388
asS'curry'
p390
(lp391
S'1 1/2 tablespoons '
p392
aS'1 1/2 teaspoons '
p393
ag392
asS'vegetable oil'
p394
(lp395
S'2 tablespoons '
p396
aS'1/2 cup '
p397
ag396
asS'cheese'
p398
(lp399
S'1/2 cup '
p400
aS'1/4 cup '
p401
ag400
asS'apple'
p402
(lp403
S'1 '
p404
aS'1 tablespoon '
p405
ag404
asS'swiss cheese'
p406
(lp407
S'8 2 3 ounces '
p408
ag408
asS'red onion'
p409
(lp410
S'1/2 '
p411
aS'1/2 cup '
p412
ag411
asS'tofu'
p413
(lp414
S'12 ounces 8 '
p415
aS'1/4 '
p416
ag415
asS'tenderloin'
p417
(lp418
S'2 2 1/2 pounds '
p419
ag419
asS'mushrooms'
p420
(lp421
S'1 '
p422
aS'1 1/2 pounds '
p423
ag422
asS'lettuce'
p424
(lp425
S'1 '
p426
aS'2 '
p427
ag426
asS'loin'
p428
(lp429
S'6 ounces '
p430
aS'2 2 1/2 pounds '
p431
ag430
asS'cherry tomatoes'
p432
(lp433
S'1/2 cup '
p434
aS'1 pint '
p435
ag434
asS'brown sugar'
p436
(lp437
S'1/4 cup '
p438
aS'2 tablespoons '
p439
ag438
asS'oregano'
p440
(lp441
S'1 teaspoon '
p442
aS'1/4 teaspoon '
p443
ag442
asS'marmite'
p444
NsS'sun-dried tomatoes'
p445
(lp446
S'6 '
p447
aS'5 '
p448
ag447
asS'cabbage'
p449
(lp450
S'1 cup '
p451
aS'1 7 1/2 cups '
p452
ag451
asS'lime'
p453
(lp454
S'1 '
p455
aS'2 '
p456
ag455
asS'turkey'
p457
(lp458
S'1 1/4 pounds '
p459
aS'1/2 cup 3 ounces '
p460
ag459
asS'blue cheese'
p461
(lp462
S'1/4 cup 2 ounces '
p463
aS'1/2 cup '
p464
ag463
asS'olives'
p465
(lp466
S'1 cup '
p467
aS'1/2 cup '
p468
ag467
asS'cheez whiz'
p469
NsS'yellow onion'
p470
(lp471
S'1 '
p472
aS'1 cup '
p473
ag472
asS'beef'
p474
(lp475
S'2 cups '
p476
aS'1 '
p477
ag476
asS'spinach'
p478
(lp479
S'8 ounces '
p480
aS'3 cups '
p481
ag480
asS'bean sprouts'
p482
NsS'provolone'
p483
(lp484
S'1/4 cup '
p485
ag485
asS'yellow mustard'
p486
NsS'parsley'
p487
(lp488
S'2 tablespoons '
p489
aS'1/4 cup '
p490
ag489
asS'scallion'
p491
(lp492
S'2 '
p493
aS'3 '
p494
ag493
asS'yam'
p495
(lp496
S'1 large small '
p497
aS'2 '
p498
ag497
asS'russet potato'
p499
(lp500
S'2 1 1/2 pounds '
p501
aS'2 large '
p502
ag501
asS'horseradish'
p503
NsS'water cress'
p504
NsS'rasins'
p505
NsS'egg noodles'
p506
(lp507
S'1 '
p508
aS'one 12-ounce '
p509
ag508
asS'tortilla strips'
p510
(lp511
S'1 teaspoon '
p512
ag512
asS'kiwi'
p513
(lp514
S'5 2 1/2 cups '
p515
aS'3 '
p516
ag515
asS'tomato'
p517
(lp518
S'1 '
p519
aS'2 '
p520
ag519
asS'butternut squash'
p521
(lp522
S'1 '
p523
aS'1 large 1 1/2 2 pounds '
p524
ag523
asS'crispy noodles'
p525
NsS'scallions'
p526
(lp527
S'2 '
p528
aS'3 '
p529
ag528
asS'lima beans'
p530
(lp531
S'1 1/2 pounds '
p532
aS'1 1 '
p533
ag532
asS'peppers'
p534
(lp535
S'1/4 cup '
p536
aS'1 cup '
p537
ag536
asS'strawberries'
p538
(lp539
S'2 cups '
p540
aS'1 cup 1 '
p541
ag540
asS'sausages'
p542
NsS'liver'
p543
(lp544
S'1/4 cup '
p545
aS'1/2 cup '
p546
ag545
asS'chipotle peppers'
p547
NsS'flowers'
p548
NsS'tomatillos'
p549
NsS'honey mustard'
p550
NsS'Greek yogurt'
p551
NsS'bow ties'
p552
NsS'frog legs'
p553
NsS'sweet potato'
p554
(lp555
S'1 large '
p556
aS'2 1/2 pounds 3 '
p557
ag556
asS'white onion'
p558
(lp559
S'1 small '
p560
ag560
asS'sriracha'
p561
(lp562
S'2 teaspoons '
p563
ag563
asS'thousand island dressing'
p564
NsS'cottage cheese'
p565
NsS'coconut'
p566
(lp567
S'2 cups '
p568
aS'2 tablespoons '
p569
ag568
asS'sirloin'
p570
(lp571
S'6 ounces '
p572
aS'2 8 225 '
p573
ag572
asS'carrots'
p574
(lp575
S'1 cup '
p576
aS'1/2 cup '
p577
ag576
asS'cricket'
p578
NsS'ginger'
p579
(lp580
S'1 tablespoon '
p581
aS'1 '
p582
ag581
asS'honey'
p583
(lp584
S'1 tablespoon '
p585
aS'1 teaspoon '
p586
ag585
asS'brussel sprouts'
p587
NsS'sunflower seeds'
p588
(lp589
S'1/4 cup '
p590
ag590
asS'penne'
p591
(lp592
S'1 '
p593
ag593
asS'apple cider vinegar'
p594
(lp595
S'3 tablespoons '
p596
aS'1/4 cup '
p597
ag596
asS'sprouts'
p598
(lp599
S'1 '
p600
ag600
asS'glazed ham'
p601
NsS'shrimp'
p602
(lp603
S'1 '
p604
aS'1 1/4 pounds large 21-24 '
p605
ag604
asS'onions'
p606
(lp607
S'2 '
p608
aS'1 cup '
p609
ag608
asS'beef tongue'
p610
NsS'cream'
p611
(lp612
S'1/2 cup '
p613
aS'1 cup '
p614
ag613
asS'sesame seeds'
p615
(lp616
S'3 tablespoons '
p617
ag617
asS'lemon'
p618
(lp619
S'1 '
p620
aS'1/2 '
p621
ag620
asS'hazelnuts'
p622
(lp623
S'3 ounces '
p624
ag624
asS'mint'
p625
(lp626
S'1/4 cup '
p627
aS'1 '
p628
ag627
asS'chorizo'
p629
(lp630
S'2 '
p631
aS'1/2 '
p632
ag631
asS'saffron'
p633
(lp634
S'2 1/2 teaspoon '
p635
aS'6 8 '
p636
ag635
asS'blue cheese dressing'
p637
NsS'mango'
p638
(lp639
S'1 '
p640
aS'1/2 cup '
p641
ag640
asS'mayonnaise'
p642
(lp643
S'1 cup '
p644
aS'1/4 cup '
p645
ag644
asS'turkey breast'
p646
NsS'leek'
p647
(lp648
S'2 cups 3 '
p649
ag649
asS'tomatoes'
p650
(lp651
S'2 '
p652
aS'1 pint '
p653
ag652
asS'zucchini'
p654
(lp655
S'1 small '
p656
aS'2 '
p657
ag656
asS'lime juice'
p658
(lp659
S'2 tablespoons '
p660
aS'1 tablespoon '
p661
ag660
asS'coconut milk'
p662
(lp663
S'1/2 cup '
p664
ag664
asS'pumpkin seeds'
p665
(lp666
S'1/2 cup '
p667
aS'small 2 tablespoons '
p668
ag667
asS'bok choy'
p669
(lp670
S'1 '
p671
aS'1 small '
p672
ag671
asS'pear'
p673
(lp674
S'1 '
p675
aS'1 1/3 cups 8 ounces '
p676
ag675
asS'chorizo sausages'
p677
NsS'sweet peas'
p678
NsS'quinoa'
p679
(lp680
S'1 3/4 cups '
p681
aS'1 cup '
p682
ag681
asS'gorgonzola'
p683
(lp684
S'2 tablespoons '
p685
ag685
asS'cucumber'
p686
(lp687
S'1 '
p688
aS'1/2 '
p689
ag688
asS'couscous'
p690
(lp691
S'1 1-pound small '
p692
aS'1 cup '
p693
ag692
asS'salsa'
p694
(lp695
S'1/2 cup '
p696
aS'1/4 cup '
p697
ag696
asS'tuna'
p698
(lp699
S'2 pounds '
p700
aS'1 5 '
p701
ag700
asS'watercress'
p702
NsS'broccoli'
p703
(lp704
S'1 '
p705
aS'5 cups small '
p706
ag705
asS'butter'
p707
(lp708
S'3 tablespoons '
p709
aS'1 tablespoon '
p710
ag709
asS'radishes'
p711
(lp712
S'1 small '
p713
aS'12 ounces '
p714
ag713
asS'spaghetti squash'
p715
NsS'black eye peas'
p716
NsS'beets'
p717
(lp718
S'6 '
p719
aS'8 '
p720
ag719
asS'potato'
p721
(lp722
S'1 large '
p723
aS'1 large small '
p724
ag723
asS'ranch'
p725
(lp726
S'1 '
p727
aS'1/2 cup '
p728
ag727
asS'soy sauce'
p729
(lp730
S'1 tablespoon '
p731
aS'4 tablespoons '
p732
ag731
asS'jalapenos'
p733
(lp734
S'3 tablespoons '
p735
aS'8 '
p736
ag735
asS'potatoesspaghetti squash'
p737
NsS'black beans'
p738
(lp739
S'1 '
p740
aS'1 14 ounces '
p741
ag740
asS'chives'
p742
(lp743
S'1 '
p744
aS'1/2 1/2 '
p745
ag744
asS'roast beef'
p746
NsS'beef stock'
p747
(lp748
S'2 cups '
p749
ag749
asS'pineapple'
p750
(lp751
S'1 cup '
p752
aS'1 cup large '
p753
ag752
asS'chicken broth'
p754
(lp755
S'4 cups '
p756
aS'2 cups '
p757
ag756
asS'red wine'
p758
(lp759
S'2 tablespoons '
p760
aS'3 tablespoons '
p761
ag760
asS'chicken breast'
p762
(lp763
S'4 6 8-ounce '
p764
aS'2 cups '
p765
ag764
asS'egg'
p766
(lp767
S'1 '
p768
aS'2 large '
p769
ag768
asS'bay leaves'
p770
(lp771
S'2 '
p772
aS'3 '
p773
ag772
as.