(dp0
S'alfalfa'
p1
(lp2
S'1 '
p3
ag3
asS'olive oil'
p4
(lp5
S'1/4 cup '
p6
aS'2 tablespoons '
p7
ag6
asS'bell pepper'
p8
(lp9
S'1 small '
p10
aS'1 '
p11
ag10
asS'hard boiled egg'
p12
(lp13
S'8 '
p14
ag14
asS'kale'
p15
(lp16
S'1 '
p17
aS'1/4 cup '
p18
ag17
asS'cheddar'
p19
(lp20
S'2 cups '
p21
aS'8 ounces '
p22
ag21
asS'sesame oil'
p23
(lp24
S'2 teaspoons '
p25
aS'1 tablespoon '
p26
ag25
asS'fennel'
p27
(lp28
S'1/2 teaspoon '
p29
aS'1 large 2 small '
p30
ag29
asS'kidney beans'
p31
(lp32
S'2 cups '
p33
aS'1 '
p34
ag33
asS'parmesan'
p35
(lp36
S'1 cup '
p37
aS'1/2 cup '
p38
ag37
asS'chicken'
p39
(lp40
S'4 cups '
p41
aS'2 cups '
p42
ag41
asS'spam'
p43
NsS'milk'
p44
(lp45
S'1 cup '
p46
aS'1/2 cup '
p47
ag46
asS'dijon mustard'
p48
(lp49
S'2 teaspoons '
p50
aS'1 teaspoon '
p51
ag50
asS'white wine'
p52
(lp53
S'2 tablespoons '
p54
aS'1 cup '
p55
ag54
asS'cilantro'
p56
(lp57
S'1/4 cup '
p58
aS'2 tablespoons '
p59
ag58
asS'ham'
p60
(lp61
S'3 tablespoons '
p62
aS'9 1 '
p63
ag62
asS'avocado'
p64
(lp65
S'1 '
p66
aS'1 small '
p67
ag66
asS'cayenne pepper'
p68
(lp69
S'1/2 teaspoon '
p70
aS'1/4 teaspoon '
p71
ag70
asS'celery'
p72
(lp73
S'2 '
p74
aS'1/2 cup '
p75
ag74
asS'roast beef'
p76
NsS'cashews'
p77
(lp78
S'1/2 cup '
p79
ag79
asS'butterapple cider vinegar'
p80
NsS'cranberries'
p81
(lp82
S'1/4 cup '
p83
aS'1/2 cup one '
p84
ag83
asS'orange'
p85
(lp86
S'1/4 cup '
p87
aS'1 '
p88
ag87
asS'peanuts'
p89
(lp90
S'2 tablespoons '
p91
aS'1/4 cup '
p92
ag91
asS'head cheese'
p93
NsS'rice'
p94
(lp95
S'1 tablespoon '
p96
aS'4 cups '
p97
ag96
asS'glass noodles'
p98
NsS'feta cheese'
p99
(lp100
S'1 cup '
p101
aS'1 '
p102
ag101
asS'anchovy'
p103
(lp104
S'1 small '
p105
aS'16 '
p106
ag105
asS'adobo sauce'
p107
(lp108
S'1 '
p109
ag109
asS'pecans'
p110
(lp111
S'3 ounces '
p112
aS'1/2 cup '
p113
ag112
asS'italian dressing'
p114
NsS'cobra eggs'
p115
NsS'goat cheese'
p116
(lp117
S'4 ounces '
p118
aS'1/4 cup 2 ounces '
p119
ag118
asS'watermelon'
p120
(lp121
S'2 cups '
p122
aS'1 1/4 cups '
p123
ag122
asS'jack'
p124
(lp125
S'1/2 cup '
p126
aS'8 2 3 ounces '
p127
ag126
asS'tobasco'
p128
NsS'romaine lettuce'
p129
(lp130
S'1 '
p131
aS'2 '
p132
ag131
asS'jicama'
p133
(lp134
S'1 '
p135
aS'1 large '
p136
ag135
asS'seaweed'
p137
NsS'hot mustard powder'
p138
NsS'onion'
p139
(lp140
S'1 '
p141
aS'1/2 '
p142
ag141
asS'thyme'
p143
(lp144
S'1 1/2 teaspoons '
p145
aS'1 teaspoon '
p146
ag145
asS'asparagus'
p147
(lp148
S'12 ounces 1/4 1/2-inch pieces '
p149
aS'1 1-pound ) '
p150
ag149
asS'cumin'
p151
(lp152
S'1/2 teaspoon '
p153
aS'1 tablespoon '
p154
ag153
asS'caesar dressing'
p155
NsS'roast'
p156
(lp157
S'2 tablespoons '
p158
aS'1/2 cup '
p159
ag158
asS'blood pudding'
p160
NsS'steak'
p161
(lp162
S'2 8 225 '
p163
aS'2 tablespoons '
p164
ag163
asS'rosemary'
p165
(lp166
S'1 '
p167
aS'1/2 teaspoon '
p168
ag167
asS'vegetable broth'
p169
(lp170
S'1/2 cup '
p171
aS'2 '
p172
ag171
asS'artichoke'
p173
(lp174
S'1 cup '
p175
aS'1 13 3/4-ounce ) '
p176
ag175
asS'pork'
p177
(lp178
S'6 ounces '
p179
aS'3 ounces '
p180
ag179
asS'clams'
p181
(lp182
S'2 6 '
p183
ag183
asS'fish'
p184
(lp185
S'6 6-8 ounce '
p186
ag186
asS'bacon'
p187
(lp188
S'1 '
p189
aS'6 pieces '
p190
ag189
asS'pepper'
p191
(lp192
S'1/2 teaspoon '
p193
aS'1 teaspoon '
p194
ag193
asS'almonds'
p195
(lp196
S'1/4 cup '
p197
aS'2 tablespoons '
p198
ag197
asS'crab meat'
p199
NsS'cricket flour'
p200
NsS'pickled onions'
p201
NsS'noodles'
p202
(lp203
S'1 '
p204
aS'2 '
p205
ag204
asS'lentils'
p206
(lp207
S'1 3/4 cups '
p208
ag208
asS'sausage'
p209
(lp210
S'1 1/2 pounds '
p211
aS'1 '
p212
ag211
asS'honeydew'
p213
(lp214
S'2 cups '
p215
ag215
asS'chili powder'
p216
(lp217
S'pinch '
p218
aS'1 tablespoon '
p219
ag218
asS'jalapeno'
p220
(lp221
S'1 '
p222
aS'1 large small '
p223
ag222
asS'turkey bacon'
p224
NsS'chicken stock'
p225
(lp226
S'4 cups '
p227
aS'8 cups '
p228
ag227
asS'worcestershire sauce'
p229
(lp230
S'2 tablespoons 2 teaspoons '
p231
aS'1 1/2 teaspoons '
p232
ag231
asS'green onions'
p233
(lp234
S'2 tablespoons '
p235
aS'12 '
p236
ag235
asS'elbows'
p237
NsS'chickpeas'
p238
(lp239
S'1 15 '
p240
aS'1 15 1/2-ounce ) '
p241
ag240
asS'mussels'
p242
NsS'pomegranate seeds'
p243
NsS'croutons'
p244
(lp245
S'1/2 cup '
p246
ag246
asS'basil'
p247
(lp248
S'1/4 cup '
p249
aS'1/2 cup '
p250
ag249
asS'cloves'
p251
(lp252
S'2 '
p253
aS'3 '
p254
ag253
asS'cantaloupe'
p255
(lp256
S'2 cups '
p257
aS'2 cups small '
p258
ag257
asS'cauliflower'
p259
(lp260
S'1 1/2 1-inch pieces '
p261
aS'1 cup small '
p262
ag261
asS'salmon'
p263
(lp264
S'2 cups '
p265
aS'4 6 1 1/2 '
p266
ag265
asS'corn'
p267
(lp268
S'1 '
p269
aS'1 cup '
p270
ag269
asS'balsamic vinegar'
p271
(lp272
S'2 tablespoons '
p273
aS'3 tablespoons '
p274
ag273
asS'walnuts'
p275
(lp276
S'1/2 cup '
p277
aS'1/3 cup '
p278
ag277
asS'water'
p279
(lp280
S'2 cups '
p281
aS'1/4 cup '
p282
ag281
asS'salami'
p283
(lp284
S'1/2 cup 3 ounces '
p285
aS'5 ounces '
p286
ag285
asS'grapes'
p287
(lp288
S'1 cup '
p289
aS'2 cups '
p290
ag289
asS'pine nuts'
p291
(lp292
S'2 tablespoons '
p293
aS'1/4 cup '
p294
ag293
asS'pasta'
p295
(lp296
S'1 '
p297
aS'12 ounces '
p298
ag297
asS'mozzarella'
p299
(lp300
S'1 cup '
p301
aS'1/2 cup 4 ounces '
p302
ag301
asS'broccolini'
p303
NsS'dates'
p304
(lp305
S'12 '
p306
aS'1/4 cup '
p307
ag306
asS'sour cream'
p308
(lp309
S'1/2 cup '
p310
aS'1 cup '
p311
ag310
asS'snails'
p312
NsS'canola oil'
p313
(lp314
S'2 tablespoons '
p315
aS'1/4 cup '
p316
ag315
asS'baby corn'
p317
NsS'potato chips'
p318
NsS'snow peas'
p319
NsS'garbanzo beans'
p320
(lp321
S'1 '
p322
aS'1 15 1/2-ounce ) '
p323
ag322
asS'chili sauce'
p324
(lp325
S'2 teaspoons '
p326
aS'1 1/2 teaspoons '
p327
ag326
asS'miracle fruit'
p328
NsS'rice noodles'
p329
NsS'vegetable stock'
p330
(lp331
S'2 cups '
p332
aS'1 cup '
p333
ag332
asS'cinnamon'
p334
(lp335
S'pinch '
p336
aS'1 teaspoon '
p337
ag336
asS'eggplant'
p338
(lp339
S'1 small '
p340
aS'2 cups small '
p341
ag340
asS'beef broth'
p342
(lp343
S'2 cups '
p344
ag344
asS'garlic'
p345
(lp346
S'2 '
p347
aS'1 '
p348
ag347
asS'curry'
p349
(lp350
S'1 1/2 tablespoons '
p351
aS'1 1/2 teaspoons '
p352
ag351
asS'vegetable oil'
p353
(lp354
S'2 tablespoons '
p355
aS'1/2 cup '
p356
ag355
asS'cheese'
p357
(lp358
S'1/2 cup '
p359
aS'1/4 cup '
p360
ag359
asS'apple'
p361
(lp362
S'1 '
p363
aS'1 tablespoon '
p364
ag363
asS'pepperoncini'
p365
(lp366
S'6 '
p367
ag367
asS'red onion'
p368
(lp369
S'1/2 '
p370
aS'1/2 cup '
p371
ag370
asS'tofu'
p372
(lp373
S'12 ounces 8 '
p374
aS'1/4 '
p375
ag374
asS'mushrooms'
p376
(lp377
S'1 '
p378
aS'1 1/2 pounds '
p379
ag378
asS'lettuce'
p380
(lp381
S'1 '
p382
aS'2 '
p383
ag382
asS'cherry tomatoes'
p384
(lp385
S'1/2 cup '
p386
aS'1 pint '
p387
ag386
asS'brown sugar'
p388
(lp389
S'1/4 cup '
p390
aS'2 tablespoons '
p391
ag390
asS'marmite'
p392
NsS'cabbage'
p393
(lp394
S'1 cup '
p395
aS'1/2 ( 6 cups '
p396
ag395
asS'lime'
p397
(lp398
S'1 '
p399
aS'2 '
p400
ag399
asS'turkey'
p401
(lp402
S'1 1/4 pounds '
p403
aS'1/2 cup 3 ounces '
p404
ag403
asS'blue cheese'
p405
(lp406
S'1/4 cup 2 ounces '
p407
aS'1/2 cup '
p408
ag407
asS'olives'
p409
(lp410
S'1 cup '
p411
aS'1/2 cup '
p412
ag411
asS'cheez whiz'
p413
NsS'yellow onion'
p414
(lp415
S'1 '
p416
aS'1 cup '
p417
ag416
asS'beef'
p418
(lp419
S'2 cups '
p420
aS'1 '
p421
ag420
asS'spinach'
p422
(lp423
S'8 ounces '
p424
aS'3 cups '
p425
ag424
asS'bean sprouts'
p426
NsS'provolone'
p427
(lp428
S'1/4 cup '
p429
ag429
asS'parsley'
p430
(lp431
S'2 tablespoons '
p432
aS'1/4 cup '
p433
ag432
asS'scallion'
p434
(lp435
S'2 '
p436
aS'4 '
p437
ag436
asS'yam'
p438
(lp439
S'1 large small '
p440
aS'2 '
p441
ag440
asS'horseradish'
p442
NsS'water cress'
p443
NsS'rasins'
p444
NsS'egg noodles'
p445
(lp446
S'1 '
p447
aS'one 12-ounce '
p448
ag447
asS'tortilla strips'
p449
(lp450
S'1 teaspoon '
p451
ag451
asS'kiwi'
p452
(lp453
S'5 2 1/2 cups '
p454
aS'3 '
p455
ag454
asS'tomato'
p456
(lp457
S'1 '
p458
aS'2 '
p459
ag458
asS'butternut squash'
p460
(lp461
S'1 '
p462
aS'1 large 1 1/2 2 pounds '
p463
ag462
asS'crispy noodles'
p464
NsS'lima beans'
p465
(lp466
S'1 1/2 pounds '
p467
aS'1 1 '
p468
ag467
asS'peppers'
p469
(lp470
S'1/4 cup '
p471
aS'1 cup '
p472
ag471
asS'strawberries'
p473
(lp474
S'2 cups '
p475
aS'1 cup 1 '
p476
ag475
asS'sausages'
p477
NsS'liver'
p478
(lp479
S'1/4 cup '
p480
aS'1/2 cup '
p481
ag480
asS'flowers'
p482
NsS'tomatillos'
p483
NsS'honey mustard'
p484
NsS'Greek yogurt'
p485
NsS'bow ties'
p486
NsS'frog legs'
p487
NsS'sweet potato'
p488
(lp489
S'1 large '
p490
aS'2 1/2 pounds 3 ) '
p491
ag490
asS'white onion'
p492
(lp493
S'1 small '
p494
ag494
asS'sriracha'
p495
(lp496
S'2 teaspoons '
p497
ag497
asS'thousand island dressing'
p498
NsS'cottage cheese'
p499
NsS'coconut'
p500
(lp501
S'2 cups '
p502
aS'2 tablespoons '
p503
ag502
asS'sirloin'
p504
(lp505
S'6 ounces '
p506
aS'2 8 225 '
p507
ag506
asS'carrots'
p508
(lp509
S'1 cup '
p510
aS'1/2 cup '
p511
ag510
asS'cricket'
p512
NsS'ginger'
p513
(lp514
S'1 tablespoon '
p515
aS'1 '
p516
ag515
asS'brussel sprouts'
p517
NsS'sunflower seeds'
p518
(lp519
S'1/4 cup '
p520
ag520
asS'penne'
p521
(lp522
S'1 '
p523
ag523
asS'sprouts'
p524
(lp525
S'1 '
p526
ag526
asS'shrimp'
p527
(lp528
S'1 '
p529
aS'32 '
p530
ag529
asS'onions'
p531
(lp532
S'2 '
p533
aS'1 cup '
p534
ag533
asS'beef tongue'
p535
NsS'cream'
p536
(lp537
S'1/2 cup '
p538
aS'1 cup '
p539
ag538
asS'sesame seeds'
p540
(lp541
S'3 tablespoons '
p542
ag542
asS'lemon'
p543
(lp544
S'1 '
p545
aS'1/2 '
p546
ag545
asS'mint'
p547
(lp548
S'1/4 cup '
p549
aS'1 '
p550
ag549
asS'chorizo'
p551
(lp552
S'2 '
p553
aS'1/2 '
p554
ag553
asS'saffron'
p555
(lp556
S'2 1/2 teaspoon '
p557
aS'6 8 '
p558
ag557
asS'blue cheese dressing'
p559
NsS'mango'
p560
(lp561
S'1 '
p562
aS'1/2 cup '
p563
ag562
asS'mayonnaise'
p564
(lp565
S'1 cup '
p566
aS'1/4 cup '
p567
ag566
asS'turkey breast'
p568
NsS'tomatoes'
p569
(lp570
S'2 '
p571
aS'1 pint '
p572
ag571
asS'zucchini'
p573
(lp574
S'1 small '
p575
aS'2 '
p576
ag575
asS'lime juice'
p577
(lp578
S'2 tablespoons '
p579
aS'1 tablespoon '
p580
ag579
asS'coconut milk'
p581
(lp582
S'1/2 cup '
p583
ag583
asS'pumpkin seeds'
p584
(lp585
S'1/2 cup '
p586
aS'small 2 tablespoons '
p587
ag586
asS'bok choy'
p588
(lp589
S'1 '
p590
aS'1 small '
p591
ag590
asS'pear'
p592
(lp593
S'1 '
p594
aS'1 1/3 cups 8 ounces '
p595
ag594
asS'chorizo sausages'
p596
NsS'sweet peas'
p597
NsS'quinoa'
p598
(lp599
S'1 3/4 cups '
p600
aS'1 cup '
p601
ag600
asS'gorgonzola'
p602
(lp603
S'2 tablespoons '
p604
ag604
asS'cucumber'
p605
(lp606
S'1 '
p607
aS'1/2 '
p608
ag607
asS'couscous'
p609
(lp610
S'1 1/2 cups '
p611
aS'1 1-pound ) small '
p612
ag611
asS'tuna'
p613
(lp614
S'2 pounds '
p615
aS'2 5 1/2-ounce ) ( '
p616
ag615
asS'watercress'
p617
NsS'broccoli'
p618
(lp619
S'1 '
p620
aS'5 cups small '
p621
ag620
asS'butter'
p622
(lp623
S'3 tablespoons '
p624
aS'1 tablespoon '
p625
ag624
asS'radishes'
p626
(lp627
S'1 small '
p628
aS'12 ounces '
p629
ag628
asS'spaghetti squash'
p630
NsS'black eye peas'
p631
NsS'beets'
p632
(lp633
S'6 '
p634
aS'8 '
p635
ag634
asS'potato'
p636
(lp637
S'1 large '
p638
aS'1 large small '
p639
ag638
asS'ranch'
p640
(lp641
S'1 '
p642
aS'1/2 cup '
p643
ag642
asS'soy sauce'
p644
(lp645
S'1 tablespoon '
p646
aS'4 tablespoons '
p647
ag646
asS'jalapenos'
p648
(lp649
S'3 tablespoons '
p650
aS'8 '
p651
ag650
asS'potatoesspaghetti squash'
p652
NsS'black beans'
p653
(lp654
S'1 '
p655
aS'1 14 ounces '
p656
ag655
asS'beef stock'
p657
(lp658
S'2 cups '
p659
ag659
asS'pineapple'
p660
(lp661
S'1 cup '
p662
aS'1 cup large '
p663
ag662
asS'chicken broth'
p664
(lp665
S'4 cups '
p666
aS'2 cups '
p667
ag666
asS'red wine'
p668
(lp669
S'2 tablespoons '
p670
aS'3 tablespoons '
p671
ag670
asS'egg'
p672
(lp673
S'1 '
p674
aS'2 large '
p675
ag674
as.