(dp0
S'alfalfa'
p1
NsS'olive oil'
p2
(lp3
S'infused'
p4
aS'recommended'
p5
ag4
asS'bell pepper'
p6
(lp7
S'red'
p8
aS'chopped'
p9
ag8
asS'hard boiled egg'
p10
(lp11
S'chopped'
p12
aS'boiled'
p13
ag12
asS'kale'
p14
(lp15
S'sliced'
p16
aS'chopped'
p17
ag16
asS'cheddar'
p18
(lp19
S'grated'
p20
ag20
asS'sesame oil'
p21
(lp22
S'toasted'
p23
ag23
asS'fennel'
p24
(lp25
S'sliced'
p26
ag26
asS'kidney beans'
p27
(lp28
S'red'
p29
aS'drained'
p30
ag29
asS'parmesan'
p31
(lp32
S'grated'
p33
aS'shredded'
p34
ag33
asS'chicken'
p35
(lp36
S'roasted'
p37
aS'kitchen'
p38
ag37
asS'spam'
p39
NsS'milk'
p40
(lp41
S'mixed'
p42
aS'sweetened'
p43
ag42
asS'dijon mustard'
p44
NsS'white wine'
p45
NsS'cilantro'
p46
(lp47
S'chopped'
p48
aS'minced'
p49
ag48
asS'ham'
p50
(lp51
S'broken'
p52
aS'prepared'
p53
ag52
asS'avocado'
p54
(lp55
S'peeled'
p56
aS'pitted'
p57
ag56
asS'cayenne pepper'
p58
NsS'celery'
p59
(lp60
S'chopped'
p61
aS'minced'
p62
ag61
asS'roast beef'
p63
NsS'cashews'
p64
(lp65
S'chopped'
p66
aS'salted'
p67
ag66
asS'butterapple cider vinegar'
p68
NsS'cranberries'
p69
(lp70
S'frozen'
p71
aS'sliced'
p72
ag71
asS'orange'
p73
(lp74
S'squeezed'
p75
aS'juiced'
p76
ag75
asS'peanuts'
p77
(lp78
S'roasted'
p79
aS'salted'
p80
ag79
asS'head cheese'
p81
NsS'rice'
p82
(lp83
S'brown'
p84
ag84
asS'glass noodles'
p85
NsS'feta cheese'
p86
NsS'anchovy'
p87
(lp88
S'chopped'
p89
ag89
asS'adobo sauce'
p90
NsS'pecans'
p91
(lp92
S'chopped'
p93
aS'toasted'
p94
ag93
asS'italian dressing'
p95
NsS'cobra eggs'
p96
NsS'goat cheese'
p97
(lp98
S'broken'
p99
aS'chilled'
p100
ag99
asS'watermelon'
p101
(lp102
S'frozen'
p103
aS'seeded'
p104
ag103
asS'jack'
p105
NsS'tobasco'
p106
NsS'romaine lettuce'
p107
(lp108
S'chopped'
p109
aS'patted'
p110
ag109
asS'jicama'
p111
(lp112
S'sliced'
p113
aS'diced'
p114
ag113
asS'seaweed'
p115
NsS'hot mustard powder'
p116
NsS'onion'
p117
(lp118
S'sliced'
p119
aS'red'
p120
ag119
asS'thyme'
p121
(lp122
S'minced'
p123
aS'removed'
p124
ag123
asS'asparagus'
p125
(lp126
S'trimmed'
p127
aS'sliced'
p128
ag127
asS'cumin'
p129
NsS'caesar dressing'
p130
NsS'roast'
p131
(lp132
S'roasted'
p133
aS'salted'
p134
ag133
asS'blood pudding'
p135
NsS'steak'
p136
(lp137
S'sliced'
p138
aS'tenderized'
p139
ag138
asS'rosemary'
p140
(lp141
S'chopped'
p142
aS'removed'
p143
ag142
asS'vegetable broth'
p144
NsS'artichoke'
p145
(lp146
S'drained'
p147
aS'quartered'
p148
ag147
asS'pork'
p149
NsS'clams'
p150
(lp151
S'reserved'
p152
ag152
asS'fish'
p153
NsS'bacon'
p154
(lp155
S'chopped'
p156
aS'crumbled'
p157
ag156
asS'pepper'
p158
(lp159
S'red'
p160
aS'sliced'
p161
ag160
asS'almonds'
p162
(lp163
S'toasted'
p164
aS'sliced'
p165
ag164
asS'crab meat'
p166
NsS'cricket flour'
p167
NsS'pickled onions'
p168
NsS'noodles'
p169
NsS'lentils'
p170
NsS'sausage'
p171
(lp172
S'removed'
p173
aS'crumbled'
p174
ag173
asS'honeydew'
p175
(lp176
S'cubed'
p177
ag177
asS'chili powder'
p178
NsS'jalapeno'
p179
(lp180
S'minced'
p181
aS'seeded'
p182
ag181
asS'turkey bacon'
p183
NsS'chicken stock'
p184
(lp185
S'kitchen'
p186
ag186
asS'worcestershire sauce'
p187
NsS'green onions'
p188
(lp189
S'green'
p190
aS'sliced'
p191
ag190
asS'elbows'
p192
NsS'chickpeas'
p193
(lp194
S'rinsed'
p195
aS'drained'
p196
ag195
asS'mussels'
p197
NsS'pomegranate seeds'
p198
NsS'croutons'
p199
NsS'basil'
p200
(lp201
S'chopped'
p202
aS'packed'
p203
ag202
asS'cloves'
p204
(lp205
S'minced'
p206
aS'chopped'
p207
ag206
asS'cantaloupe'
p208
(lp209
S'diced'
p210
aS'seeded'
p211
ag210
asS'cauliflower'
p212
NsS'salmon'
p213
(lp214
S'flaked'
p215
ag215
asS'corn'
p216
(lp217
S'frozen'
p218
aS'drained'
p219
ag218
asS'balsamic vinegar'
p220
NsS'walnuts'
p221
(lp222
S'toasted'
p223
aS'chopped'
p224
ag223
asS'water'
p225
(lp226
S'frozen'
p227
aS'cooked'
p228
ag227
asS'salami'
p229
(lp230
S'chopped'
p231
aS'diced'
p232
ag231
asS'grapes'
p233
(lp234
S'frozen'
p235
aS'chilled'
p236
ag235
asS'pine nuts'
p237
(lp238
S'toasted'
p239
ag239
asS'pasta'
p240
(lp241
S'cooked'
p242
ag242
asS'mozzarella'
p243
(lp244
S'sliced'
p245
aS'shredded'
p246
ag245
asS'broccolini'
p247
NsS'dates'
p248
(lp249
S'pitted'
p250
aS'chopped'
p251
ag250
asS'sour cream'
p252
(lp253
S'strained'
p254
ag254
asS'snails'
p255
NsS'canola oil'
p256
NsS'baby corn'
p257
NsS'potato chips'
p258
NsS'snow peas'
p259
NsS'garbanzo beans'
p260
(lp261
S'drained'
p262
aS'rinsed'
p263
ag262
asS'chili sauce'
p264
(lp265
S'sweet'
p266
ag266
asS'miracle fruit'
p267
NsS'rice noodles'
p268
NsS'vegetable stock'
p269
NsS'cinnamon'
p270
(lp271
S'broken'
p272
ag272
asS'eggplant'
p273
(lp274
S'sliced'
p275
aS'diced'
p276
ag275
asS'beef broth'
p277
NsS'garlic'
p278
(lp279
S'minced'
p280
aS'chopped'
p281
ag280
asS'curry'
p282
NsS'vegetable oil'
p283
NsS'cheese'
p284
(lp285
S'grated'
p286
aS'shredded'
p287
ag286
asS'apple'
p288
(lp289
S'cored'
p290
aS'chopped'
p291
ag290
asS'pepperoncini'
p292
NsS'red onion'
p293
(lp294
S'red'
p295
aS'sliced'
p296
ag295
asS'tofu'
p297
NsS'mushrooms'
p298
(lp299
S'halved'
p300
aS'sliced'
p301
ag300
asS'lettuce'
p302
(lp303
S'chopped'
p304
aS'patted'
p305
ag304
asS'cherry tomatoes'
p306
(lp307
S'halved'
p308
aS'quartered'
p309
ag308
asS'brown sugar'
p310
(lp311
S'packed'
p312
ag312
asS'marmite'
p313
NsS'cabbage'
p314
(lp315
S'shredded'
p316
ag316
asS'lime'
p317
(lp318
S'juiced'
p319
aS'squeezed'
p320
ag319
asS'turkey'
p321
NsS'blue cheese'
p322
NsS'olives'
p323
(lp324
S'chopped'
p325
aS'pitted'
p326
ag325
asS'cheez whiz'
p327
NsS'yellow onion'
p328
(lp329
S'sliced'
p330
ag330
asS'beef'
p331
NsS'spinach'
p332
(lp333
S'dried'
p334
aS'mixed'
p335
ag334
asS'bean sprouts'
p336
NsS'provolone'
p337
NsS'parsley'
p338
(lp339
S'chopped'
p340
aS'tied'
p341
ag340
asS'scallion'
p342
(lp343
S'sliced'
p344
aS'chopped'
p345
ag344
asS'yam'
p346
(lp347
S'diced'
p348
aS'peeled'
p349
ag348
asS'horseradish'
p350
NsS'water cress'
p351
NsS'rasins'
p352
NsS'egg noodles'
p353
NsS'tortilla strips'
p354
NsS'kiwi'
p355
(lp356
S'chopped'
p357
aS'sliced'
p358
ag357
asS'tomato'
p359
(lp360
S'halved'
p361
aS'seeded'
p362
ag361
asS'butternut squash'
p363
(lp364
S'seeded'
p365
aS'peeled'
p366
ag365
asS'crispy noodles'
p367
NsS'lima beans'
p368
(lp369
S'frozen'
p370
aS'thawed'
p371
ag370
asS'peppers'
p372
(lp373
S'red'
p374
aS'minced'
p375
ag374
asS'strawberries'
p376
(lp377
S'frozen'
p378
aS'sliced'
p379
ag378
asS'sausages'
p380
NsS'liver'
p381
(lp382
S'toasted'
p383
aS'rinsed'
p384
ag383
asS'flowers'
p385
NsS'tomatillos'
p386
NsS'honey mustard'
p387
NsS'Greek yogurt'
p388
NsS'bow ties'
p389
NsS'frog legs'
p390
NsS'sweet potato'
p391
(lp392
S'peeled'
p393
ag393
asS'white onion'
p394
NsS'sriracha'
p395
NsS'thousand island dressing'
p396
NsS'cottage cheese'
p397
NsS'coconut'
p398
(lp399
S'shredded'
p400
aS'toasted'
p401
ag400
asS'sirloin'
p402
NsS'carrots'
p403
(lp404
S'julienned'
p405
aS'chopped'
p406
ag405
asS'cricket'
p407
NsS'ginger'
p408
(lp409
S'grated'
p410
aS'minced'
p411
ag410
asS'brussel sprouts'
p412
NsS'sunflower seeds'
p413
NsS'penne'
p414
NsS'sprouts'
p415
NsS'shrimp'
p416
(lp417
S'deveined'
p418
ag418
asS'onions'
p419
(lp420
S'sliced'
p421
aS'diced'
p422
ag421
asS'beef tongue'
p423
NsS'cream'
p424
(lp425
S'whipped'
p426
aS'creamed'
p427
ag426
asS'sesame seeds'
p428
(lp429
S'toasted'
p430
ag430
asS'lemon'
p431
(lp432
S'juiced'
p433
aS'squeezed'
p434
ag433
asS'mint'
p435
(lp436
S'chopped'
p437
aS'packed'
p438
ag437
asS'chorizo'
p439
(lp440
S'removed'
p441
ag441
asS'saffron'
p442
NsS'blue cheese dressing'
p443
NsS'mango'
p444
(lp445
S'diced'
p446
aS'chopped'
p447
ag446
asS'mayonnaise'
p448
(lp449
S'rounded'
p450
ag450
asS'turkey breast'
p451
NsS'tomatoes'
p452
(lp453
S'halved'
p454
aS'chopped'
p455
ag454
asS'zucchini'
p456
(lp457
S'sliced'
p458
ag458
asS'lime juice'
p459
(lp460
S'squeezed'
p461
aS'juiced'
p462
ag461
asS'coconut milk'
p463
NsS'pumpkin seeds'
p464
(lp465
S'rounded'
p466
aS'toasted'
p467
ag466
asS'bok choy'
p468
(lp469
S'mixed'
p470
ag470
asS'pear'
p471
(lp472
S'diced'
p473
aS'peeled'
p474
ag473
asS'chorizo sausages'
p475
NsS'sweet peas'
p476
NsS'quinoa'
p477
NsS'gorgonzola'
p478
NsS'cucumber'
p479
(lp480
S'seeded'
p481
aS'diced'
p482
ag481
asS'couscous'
p483
(lp484
S'called'
p485
ag485
asS'tuna'
p486
(lp487
S'recommended'
p488
aS'flaked'
p489
ag488
asS'watercress'
p490
NsS'broccoli'
p491
(lp492
S'mixed'
p493
aS'trimmed'
p494
ag493
asS'butter'
p495
(lp496
S'unsalted'
p497
aS'seeded'
p498
ag497
asS'radishes'
p499
(lp500
S'sliced'
p501
ag501
asS'spaghetti squash'
p502
NsS'black eye peas'
p503
NsS'beets'
p504
(lp505
S'scrubbed'
p506
aS'red'
p507
ag506
asS'potato'
p508
(lp509
S'chopped'
p510
aS'peeled'
p511
ag510
asS'ranch'
p512
NsS'soy sauce'
p513
NsS'jalapenos'
p514
NsS'potatoesspaghetti squash'
p515
NsS'black beans'
p516
(lp517
S'rinsed'
p518
aS'drained'
p519
ag518
asS'beef stock'
p520
NsS'pineapple'
p521
(lp522
S'chopped'
p523
ag523
asS'chicken broth'
p524
NsS'red wine'
p525
(lp526
S'red'
p527
ag527
asS'egg'
p528
(lp529
S'beaten'
p530
aS'sliced'
p531
ag530
as.