(dp0
S'alfalfa'
p1
NsS'olive oil'
p2
(lp3
S'infused'
p4
aS'recommended'
p5
ag4
asS'bell pepper'
p6
(lp7
S'red'
p8
aS'seeded'
p9
ag8
asS'mahi mahi fillets'
p10
NsS'hard boiled egg'
p11
(lp12
S'chopped'
p13
aS'boiled'
p14
ag13
asS'kale'
p15
(lp16
S'removed'
p17
aS'sliced'
p18
ag17
asS'pepper flakes'
p19
(lp20
S'red'
p21
aS'crushed'
p22
ag21
asS'cheddar'
p23
(lp24
S'grated'
p25
aS'shredded'
p26
ag25
asS'sesame oil'
p27
(lp28
S'toasted'
p29
aS'divided'
p30
ag29
asS'fennel'
p31
(lp32
S'sliced'
p33
ag33
asS'kidney beans'
p34
(lp35
S'cooked'
p36
aS'rinsed'
p37
ag36
asS'parmesan'
p38
(lp39
S'grated'
p40
aS'shaved'
p41
ag40
asS'chicken'
p42
(lp43
S'cut'
p44
aS'removed'
p45
ag44
asS'spam'
p46
NsS'milk'
p47
(lp48
S'chilled'
p49
aS'sweetened'
p50
ag49
asS'brie'
p51
NsS'dijon mustard'
p52
NsS'white wine'
p53
NsS'cilantro'
p54
(lp55
S'chopped'
p56
aS'minced'
p57
ag56
asS'thai salad dressing'
p58
NsS'ham'
p59
(lp60
S'broken'
p61
aS'prepared'
p62
ag61
asS'pork shoulder'
p63
(lp64
S'diced'
p65
ag65
asS'avocado'
p66
(lp67
S'diced'
p68
aS'peeled'
p69
ag68
asS'cayenne pepper'
p70
NsS'celery'
p71
(lp72
S'chopped'
p73
aS'sliced'
p74
ag73
asS'pepperoncini'
p75
NsS'pancetta'
p76
(lp77
S'sliced'
p78
aS'chopped'
p79
ag78
asS'cashews'
p80
(lp81
S'chopped'
p82
aS'salted'
p83
ag82
asS'cranberries'
p84
(lp85
S'dried'
p86
aS'frozen'
p87
ag86
asS'orange'
p88
(lp89
S'squeezed'
p90
aS'juiced'
p91
ag90
asS'peanuts'
p92
(lp93
S'roasted'
p94
aS'chopped'
p95
ag94
asS'head cheese'
p96
NsS'rice'
p97
(lp98
S'cooked'
p99
aS'brown'
p100
ag99
asS'glass noodles'
p101
NsS'feta cheese'
p102
(lp103
S'crumbled'
p104
ag104
asS'acorn squash'
p105
NsS'anchovy'
p106
(lp107
S'chopped'
p108
ag108
asS'adobo sauce'
p109
NsS'pecans'
p110
(lp111
S'chopped'
p112
aS'toasted'
p113
ag112
asS'genoa salami'
p114
NsS'sage'
p115
(lp116
S'removed'
p117
aS'chopped'
p118
ag117
asS'italian dressing'
p119
NsS'cobra eggs'
p120
NsS'goat cheese'
p121
(lp122
S'crumbled'
p123
aS'broken'
p124
ag123
asS'watermelon'
p125
(lp126
S'chopped'
p127
aS'seeded'
p128
ag127
asS'jack'
p129
(lp130
S'grated'
p131
aS'shredded'
p132
ag131
asS'tobasco'
p133
NsS'romaine lettuce'
p134
(lp135
S'chopped'
p136
aS'cut'
p137
ag136
asS'jicama'
p138
(lp139
S'peeled'
p140
aS'julienned'
p141
ag140
asS'seaweed'
p142
NsS'ketchup'
p143
NsS'arugula'
p144
(lp145
S'washed'
p146
aS'packed'
p147
ag146
asS'red wine vinegar'
p148
(lp149
S'red'
p150
ag150
asS'hot mustard powder'
p151
NsS'onion'
p152
(lp153
S'chopped'
p154
aS'red'
p155
ag154
asS'thyme'
p156
(lp157
S'dried'
p158
aS'chopped'
p159
ag158
asS'asparagus'
p160
(lp161
S'trimmed'
p162
aS'sliced'
p163
ag162
asS'cumin'
p164
NsS'caesar dressing'
p165
NsS'roast'
p166
(lp167
S'roasted'
p168
aS'chopped'
p169
ag168
asS'blood pudding'
p170
NsS'hot mustard'
p171
NsS'steak'
p172
(lp173
S'tenderized'
p174
aS'sliced'
p175
ag174
asS'rosemary'
p176
(lp177
S'chopped'
p178
aS'minced'
p179
ag178
asS'vegetable broth'
p180
NsS'artichoke'
p181
(lp182
S'quartered'
p183
aS'marinated'
p184
ag183
asS'anchovy paste'
p185
NsS'pork'
p186
(lp187
S'trimmed'
p188
aS'diced'
p189
ag188
asS'clams'
p190
(lp191
S'chopped'
p192
aS'reserved'
p193
ag192
asS'allspice'
p194
NsS'fish'
p195
NsS'bacon'
p196
(lp197
S'cut'
p198
aS'chopped'
p199
ag198
asS'pepper'
p200
(lp201
S'red'
p202
aS'seeded'
p203
ag202
asS'almonds'
p204
(lp205
S'toasted'
p206
aS'sliced'
p207
ag206
asS'crab meat'
p208
NsS'cricket flour'
p209
NsS'pickled onions'
p210
NsS'noodles'
p211
(lp212
S'discarded'
p213
aS'cooked'
p214
ag213
asS'lentils'
p215
NsS'sausage'
p216
(lp217
S'removed'
p218
aS'cut'
p219
ag218
asS'honeydew'
p220
(lp221
S'melon'
p222
aS'cubed'
p223
ag222
asS'white vinegar'
p224
(lp225
S'distilled'
p226
ag226
asS'chili powder'
p227
NsS'jalapeno'
p228
(lp229
S'seeded'
p230
aS'minced'
p231
ag230
asS'turkey bacon'
p232
NsS'chicken stock'
p233
(lp234
S'recommended'
p235
aS'kitchen'
p236
ag235
asS'worcestershire sauce'
p237
NsS'green onions'
p238
(lp239
S'chopped'
p240
aS'green'
p241
ag240
asS'elbows'
p242
NsS'chickpeas'
p243
(lp244
S'rinsed'
p245
aS'drained'
p246
ag245
asS'mussels'
p247
NsS'pomegranate seeds'
p248
NsS'croutons'
p249
(lp250
S'bread'
p251
ag251
asS'basil'
p252
(lp253
S'chopped'
p254
aS'packed'
p255
ag254
asS'cloves'
p256
(lp257
S'minced'
p258
aS'chopped'
p259
ag258
asS'cantaloupe'
p260
(lp261
S'diced'
p262
aS'cut'
p263
ag262
asS'cauliflower'
p264
(lp265
S'trimmed'
p266
ag266
asS'salmon'
p267
(lp268
S'cooked'
p269
aS'flaked'
p270
ag269
asS'corn'
p271
(lp272
S'cut'
p273
aS'shucked'
p274
ag273
asS'balsamic vinegar'
p275
NsS'walnuts'
p276
(lp277
S'chopped'
p278
aS'toasted'
p279
ag278
asS'water'
p280
(lp281
S'drained'
p282
aS'chopped'
p283
ag282
asS'salami'
p284
(lp285
S'chopped'
p286
aS'cut'
p287
ag286
asS'grapes'
p288
(lp289
S'red'
p290
aS'halved'
p291
ag290
asS'pine nuts'
p292
(lp293
S'toasted'
p294
ag294
asS'pasta'
p295
(lp296
S'cooked'
p297
aS'shocked'
p298
ag297
asS'mozzarella'
p299
(lp300
S'shredded'
p301
aS'sliced'
p302
ag301
asS'broccolini'
p303
NsS'dates'
p304
(lp305
S'pitted'
p306
aS'chopped'
p307
ag306
asS'sour cream'
p308
(lp309
S'strained'
p310
ag310
asS'snails'
p311
NsS'canola oil'
p312
(lp313
S'divided'
p314
ag314
asS'baby corn'
p315
NsS'potato chips'
p316
NsS'snow peas'
p317
NsS'garbanzo beans'
p318
(lp319
S'drained'
p320
aS'rinsed'
p321
ag320
asS'chili sauce'
p322
(lp323
S'sweet'
p324
aS'recommended'
p325
ag324
asS'miracle fruit'
p326
NsS'rice noodles'
p327
NsS'vegetable stock'
p328
NsS'cinnamon'
p329
(lp330
S'ground'
p331
aS'snapped'
p332
ag331
asS'eggplant'
p333
(lp334
S'sliced'
p335
aS'diced'
p336
ag335
asS'beef broth'
p337
(lp338
S'canned'
p339
ag339
asS'garlic'
p340
(lp341
S'minced'
p342
aS'chopped'
p343
ag342
asS'curry'
p344
(lp345
S'recommended'
p346
ag346
asS'vegetable oil'
p347
NsS'cheese'
p348
(lp349
S'grated'
p350
aS'crumbled'
p351
ag350
asS'apple'
p352
(lp353
S'cored'
p354
aS'chopped'
p355
ag354
asS'swiss cheese'
p356
NsS'red onion'
p357
(lp358
S'red'
p359
aS'sliced'
p360
ag359
asS'tofu'
p361
(lp362
S'sliced'
p363
aS'recommended'
p364
ag363
asS'tenderloin'
p365
(lp366
S'trimmed'
p367
ag367
asS'mushrooms'
p368
(lp369
S'sliced'
p370
aS'halved'
p371
ag370
asS'lettuce'
p372
(lp373
S'chopped'
p374
aS'chunked'
p375
ag374
asS'loin'
p376
(lp377
S'trimmed'
p378
aS'cut'
p379
ag378
asS'cherry tomatoes'
p380
(lp381
S'halved'
p382
aS'quartered'
p383
ag382
asS'brown sugar'
p384
(lp385
S'packed'
p386
ag386
asS'oregano'
p387
(lp388
S'dried'
p389
aS'chopped'
p390
ag389
asS'marmite'
p391
NsS'sun-dried tomatoes'
p392
(lp393
S'drained'
p394
aS'chopped'
p395
ag394
asS'cabbage'
p396
(lp397
S'shredded'
p398
aS'chopped'
p399
ag398
asS'lime'
p400
(lp401
S'juiced'
p402
aS'zested'
p403
ag402
asS'turkey'
p404
(lp405
S'cut'
p406
aS'removed'
p407
ag406
asS'blue cheese'
p408
NsS'olives'
p409
(lp410
S'pitted'
p411
aS'chopped'
p412
ag411
asS'cheez whiz'
p413
NsS'yellow onion'
p414
(lp415
S'chopped'
p416
aS'sliced'
p417
ag416
asS'beef'
p418
(lp419
S'cut'
p420
aS'canned'
p421
ag420
asS'spinach'
p422
(lp423
S'packed'
p424
aS'washed'
p425
ag424
asS'bean sprouts'
p426
NsS'provolone'
p427
(lp428
S'cut'
p429
ag429
asS'yellow mustard'
p430
NsS'parsley'
p431
(lp432
S'chopped'
p433
aS'packed'
p434
ag433
asS'scallion'
p435
(lp436
S'chopped'
p437
aS'sliced'
p438
ag437
asS'yam'
p439
(lp440
S'peeled'
p441
aS'diced'
p442
ag441
asS'russet potato'
p443
(lp444
S'peeled'
p445
aS'chopped'
p446
ag445
asS'horseradish'
p447
NsS'water cress'
p448
NsS'rasins'
p449
NsS'egg noodles'
p450
NsS'tortilla strips'
p451
NsS'kiwi'
p452
(lp453
S'peeled'
p454
aS'chopped'
p455
ag454
asS'tomato'
p456
(lp457
S'halved'
p458
aS'chopped'
p459
ag458
asS'butternut squash'
p460
(lp461
S'seeded'
p462
aS'peeled'
p463
ag462
asS'crispy noodles'
p464
NsS'scallions'
p465
(lp466
S'sliced'
p467
aS'chopped'
p468
ag467
asS'lima beans'
p469
(lp470
S'frozen'
p471
aS'defrosted'
p472
ag471
asS'peppers'
p473
(lp474
S'seeded'
p475
aS'red'
p476
ag475
asS'strawberries'
p477
(lp478
S'frozen'
p479
aS'sliced'
p480
ag479
asS'sausages'
p481
NsS'liver'
p482
(lp483
S'slivered'
p484
aS'toasted'
p485
ag484
asS'chipotle peppers'
p486
NsS'flowers'
p487
NsS'tomatillos'
p488
NsS'honey mustard'
p489
NsS'Greek yogurt'
p490
NsS'bow ties'
p491
NsS'frog legs'
p492
NsS'sweet potato'
p493
(lp494
S'peeled'
p495
ag495
asS'white onion'
p496
(lp497
S'chopped'
p498
ag498
asS'sriracha'
p499
(lp500
S'recommended'
p501
ag501
asS'thousand island dressing'
p502
NsS'cottage cheese'
p503
NsS'coconut'
p504
(lp505
S'shredded'
p506
aS'toasted'
p507
ag506
asS'sirloin'
p508
(lp509
S'trimmed'
p510
aS'cut'
p511
ag510
asS'carrots'
p512
(lp513
S'peeled'
p514
aS'shredded'
p515
ag514
asS'cricket'
p516
NsS'ginger'
p517
(lp518
S'peeled'
p519
aS'grated'
p520
ag519
asS'honey'
p521
(lp522
S'melon'
p523
aS'cubed'
p524
ag523
asS'brussel sprouts'
p525
NsS'sunflower seeds'
p526
NsS'penne'
p527
NsS'apple cider vinegar'
p528
NsS'sprouts'
p529
NsS'glazed ham'
p530
NsS'shrimp'
p531
(lp532
S'deveined'
p533
aS'peeled'
p534
ag533
asS'onions'
p535
(lp536
S'chopped'
p537
aS'diced'
p538
ag537
asS'beef tongue'
p539
NsS'cream'
p540
(lp541
S'whipped'
p542
aS'creamed'
p543
ag542
asS'sesame seeds'
p544
(lp545
S'toasted'
p546
ag546
asS'lemon'
p547
(lp548
S'juiced'
p549
aS'zested'
p550
ag549
asS'hazelnuts'
p551
(lp552
S'chopped'
p553
aS'toasted'
p554
ag553
asS'mint'
p555
(lp556
S'chopped'
p557
aS'washed'
p558
ag557
asS'chorizo'
p559
(lp560
S'removed'
p561
aS'chopped'
p562
ag561
asS'saffron'
p563
NsS'blue cheese dressing'
p564
NsS'mango'
p565
(lp566
S'chopped'
p567
aS'diced'
p568
ag567
asS'mayonnaise'
p569
(lp570
S'rounded'
p571
ag571
asS'turkey breast'
p572
NsS'leek'
p573
(lp574
S'chopped'
p575
ag575
asS'tomatoes'
p576
(lp577
S'halved'
p578
aS'chopped'
p579
ag578
asS'zucchini'
p580
(lp581
S'cut'
p582
aS'sliced'
p583
ag582
asS'lime juice'
p584
(lp585
S'juiced'
p586
aS'squeezed'
p587
ag586
asS'coconut milk'
p588
NsS'pumpkin seeds'
p589
(lp590
S'rounded'
p591
aS'toasted'
p592
ag591
asS'bok choy'
p593
(lp594
S'sliced'
p595
aS'chopped'
p596
ag595
asS'pear'
p597
(lp598
S'cored'
p599
aS'diced'
p600
ag599
asS'chorizo sausages'
p601
NsS'sweet peas'
p602
NsS'quinoa'
p603
NsS'gorgonzola'
p604
(lp605
S'crumbled'
p606
ag606
asS'cucumber'
p607
(lp608
S'peeled'
p609
aS'diced'
p610
ag609
asS'couscous'
p611
(lp612
S'uncooked'
p613
aS'called'
p614
ag613
asS'salsa'
p615
(lp616
S'jarred'
p617
ag617
asS'tuna'
p618
(lp619
S'drained'
p620
aS'recommended'
p621
ag620
asS'watercress'
p622
NsS'broccoli'
p623
(lp624
S'cut'
p625
aS'sliced'
p626
ag625
asS'butter'
p627
(lp628
S'unsalted'
p629
aS'softened'
p630
ag629
asS'radishes'
p631
(lp632
S'sliced'
p633
aS'trimmed'
p634
ag633
asS'spaghetti squash'
p635
NsS'black eye peas'
p636
NsS'beets'
p637
(lp638
S'trimmed'
p639
aS'scrubbed'
p640
ag639
asS'potato'
p641
(lp642
S'peeled'
p643
aS'chopped'
p644
ag643
asS'ranch'
p645
NsS'soy sauce'
p646
(lp647
S'divided'
p648
ag648
asS'jalapenos'
p649
(lp650
S'pickled'
p651
ag651
asS'potatoesspaghetti squash'
p652
NsS'black beans'
p653
(lp654
S'rinsed'
p655
aS'drained'
p656
ag655
asS'chives'
p657
(lp658
S'chopped'
p659
aS'snipped'
p660
ag659
asS'roast beef'
p661
NsS'beef stock'
p662
NsS'pineapple'
p663
(lp664
S'chopped'
p665
aS'diced'
p666
ag665
asS'chicken broth'
p667
NsS'red wine'
p668
(lp669
S'red'
p670
ag670
asS'chicken breast'
p671
(lp672
S'chopped'
p673
aS'cut'
p674
ag673
asS'egg'
p675
(lp676
S'beaten'
p677
aS'sliced'
p678
ag677
asS'bay leaves'
p679
Ns.