(dp0
S'alfalfa'
p1
NsS'olive oil'
p2
(lp3
S'infused'
p4
aS'recommended'
p5
ag4
asS'bell pepper'
p6
(lp7
S'red'
p8
aS'chopped'
p9
ag8
asS'mahi mahi fillets'
p10
NsS'hard boiled egg'
p11
(lp12
S'chopped'
p13
aS'boiled'
p14
ag13
asS'kale'
p15
(lp16
S'sliced'
p17
aS'chopped'
p18
ag17
asS'pepper flakes'
p19
(lp20
S'red'
p21
ag21
asS'cheddar'
p22
(lp23
S'grated'
p24
ag24
asS'sesame oil'
p25
(lp26
S'toasted'
p27
ag27
asS'fennel'
p28
(lp29
S'sliced'
p30
ag30
asS'kidney beans'
p31
(lp32
S'red'
p33
aS'drained'
p34
ag33
asS'parmesan'
p35
(lp36
S'grated'
p37
aS'shredded'
p38
ag37
asS'chicken'
p39
(lp40
S'roasted'
p41
aS'cubed'
p42
ag41
asS'spam'
p43
NsS'milk'
p44
(lp45
S'mixed'
p46
aS'sweetened'
p47
ag46
asS'brie'
p48
NsS'dijon mustard'
p49
NsS'white wine'
p50
NsS'cilantro'
p51
(lp52
S'chopped'
p53
aS'minced'
p54
ag53
asS'thai salad dressing'
p55
NsS'ham'
p56
(lp57
S'broken'
p58
aS'prepared'
p59
ag58
asS'pork shoulder'
p60
NsS'avocado'
p61
(lp62
S'peeled'
p63
aS'sliced'
p64
ag63
asS'cayenne pepper'
p65
NsS'celery'
p66
(lp67
S'chopped'
p68
aS'minced'
p69
ag68
asS'pepperoncini'
p70
NsS'pancetta'
p71
(lp72
S'sliced'
p73
aS'chopped'
p74
ag73
asS'cashews'
p75
(lp76
S'chopped'
p77
aS'salted'
p78
ag77
asS'cranberries'
p79
(lp80
S'frozen'
p81
aS'sliced'
p82
ag81
asS'orange'
p83
(lp84
S'squeezed'
p85
aS'juiced'
p86
ag85
asS'peanuts'
p87
(lp88
S'roasted'
p89
aS'salted'
p90
ag89
asS'head cheese'
p91
NsS'rice'
p92
(lp93
S'brown'
p94
aS'seasoned'
p95
ag94
asS'glass noodles'
p96
NsS'feta cheese'
p97
NsS'acorn squash'
p98
NsS'anchovy'
p99
(lp100
S'chopped'
p101
ag101
asS'adobo sauce'
p102
NsS'pecans'
p103
(lp104
S'chopped'
p105
aS'toasted'
p106
ag105
asS'genoa salami'
p107
NsS'sage'
p108
(lp109
S'chopped'
p110
aS'removed'
p111
ag110
asS'italian dressing'
p112
NsS'cobra eggs'
p113
NsS'goat cheese'
p114
(lp115
S'broken'
p116
aS'chilled'
p117
ag116
asS'watermelon'
p118
(lp119
S'frozen'
p120
aS'seeded'
p121
ag120
asS'jack'
p122
NsS'tobasco'
p123
NsS'romaine lettuce'
p124
(lp125
S'chopped'
p126
aS'patted'
p127
ag126
asS'jicama'
p128
(lp129
S'sliced'
p130
aS'diced'
p131
ag130
asS'seaweed'
p132
NsS'ketchup'
p133
NsS'arugula'
p134
(lp135
S'packed'
p136
ag136
asS'red wine vinegar'
p137
(lp138
S'red'
p139
ag139
asS'hot mustard powder'
p140
NsS'onion'
p141
(lp142
S'sliced'
p143
aS'red'
p144
ag143
asS'thyme'
p145
(lp146
S'minced'
p147
aS'removed'
p148
ag147
asS'asparagus'
p149
(lp150
S'trimmed'
p151
aS'sliced'
p152
ag151
asS'cumin'
p153
NsS'caesar dressing'
p154
NsS'roast'
p155
(lp156
S'roasted'
p157
aS'salted'
p158
ag157
asS'blood pudding'
p159
NsS'hot mustard'
p160
NsS'steak'
p161
(lp162
S'sliced'
p163
aS'tenderized'
p164
ag163
asS'rosemary'
p165
(lp166
S'chopped'
p167
aS'removed'
p168
ag167
asS'vegetable broth'
p169
NsS'artichoke'
p170
(lp171
S'drained'
p172
aS'quartered'
p173
ag172
asS'anchovy paste'
p174
NsS'pork'
p175
(lp176
S'cut'
p177
ag177
asS'clams'
p178
(lp179
S'reserved'
p180
ag180
asS'allspice'
p181
NsS'fish'
p182
NsS'bacon'
p183
(lp184
S'chopped'
p185
aS'crumbled'
p186
ag185
asS'pepper'
p187
(lp188
S'red'
p189
aS'seeded'
p190
ag189
asS'almonds'
p191
(lp192
S'toasted'
p193
aS'sliced'
p194
ag193
asS'crab meat'
p195
NsS'cricket flour'
p196
NsS'pickled onions'
p197
NsS'noodles'
p198
NsS'lentils'
p199
NsS'sausage'
p200
(lp201
S'removed'
p202
aS'crumbled'
p203
ag202
asS'honeydew'
p204
(lp205
S'cubed'
p206
ag206
asS'white vinegar'
p207
NsS'chili powder'
p208
NsS'jalapeno'
p209
(lp210
S'minced'
p211
aS'seeded'
p212
ag211
asS'turkey bacon'
p213
NsS'chicken stock'
p214
(lp215
S'kitchen'
p216
ag216
asS'worcestershire sauce'
p217
NsS'green onions'
p218
(lp219
S'sliced'
p220
aS'green'
p221
ag220
asS'elbows'
p222
NsS'chickpeas'
p223
(lp224
S'rinsed'
p225
aS'drained'
p226
ag225
asS'mussels'
p227
NsS'pomegranate seeds'
p228
NsS'croutons'
p229
NsS'basil'
p230
(lp231
S'chopped'
p232
aS'cut'
p233
ag232
asS'cloves'
p234
(lp235
S'minced'
p236
aS'chopped'
p237
ag236
asS'cantaloupe'
p238
(lp239
S'diced'
p240
aS'seeded'
p241
ag240
asS'cauliflower'
p242
NsS'salmon'
p243
(lp244
S'flaked'
p245
ag245
asS'corn'
p246
(lp247
S'frozen'
p248
aS'drained'
p249
ag248
asS'balsamic vinegar'
p250
NsS'walnuts'
p251
(lp252
S'toasted'
p253
aS'chopped'
p254
ag253
asS'water'
p255
(lp256
S'seeded'
p257
aS'boiled'
p258
ag257
asS'salami'
p259
(lp260
S'chopped'
p261
aS'diced'
p262
ag261
asS'grapes'
p263
(lp264
S'frozen'
p265
aS'chilled'
p266
ag265
asS'pine nuts'
p267
(lp268
S'toasted'
p269
ag269
asS'pasta'
p270
(lp271
S'cooked'
p272
ag272
asS'mozzarella'
p273
(lp274
S'sliced'
p275
aS'shredded'
p276
ag275
asS'broccolini'
p277
NsS'dates'
p278
(lp279
S'pitted'
p280
aS'chopped'
p281
ag280
asS'sour cream'
p282
(lp283
S'strained'
p284
ag284
asS'snails'
p285
NsS'canola oil'
p286
NsS'baby corn'
p287
NsS'potato chips'
p288
NsS'snow peas'
p289
NsS'garbanzo beans'
p290
(lp291
S'drained'
p292
aS'rinsed'
p293
ag292
asS'chili sauce'
p294
(lp295
S'sweet'
p296
ag296
asS'miracle fruit'
p297
NsS'rice noodles'
p298
NsS'vegetable stock'
p299
NsS'cinnamon'
p300
(lp301
S'broken'
p302
ag302
asS'eggplant'
p303
(lp304
S'sliced'
p305
aS'diced'
p306
ag305
asS'beef broth'
p307
NsS'garlic'
p308
(lp309
S'minced'
p310
aS'chopped'
p311
ag310
asS'curry'
p312
NsS'vegetable oil'
p313
NsS'cheese'
p314
(lp315
S'grated'
p316
aS'shredded'
p317
ag316
asS'apple'
p318
(lp319
S'cored'
p320
aS'chopped'
p321
ag320
asS'swiss cheese'
p322
NsS'red onion'
p323
(lp324
S'red'
p325
aS'sliced'
p326
ag325
asS'tofu'
p327
NsS'tenderloin'
p328
(lp329
S'cut'
p330
ag330
asS'mushrooms'
p331
(lp332
S'sliced'
p333
aS'halved'
p334
ag333
asS'lettuce'
p335
(lp336
S'chopped'
p337
aS'patted'
p338
ag337
asS'loin'
p339
(lp340
S'sliced'
p341
aS'cut'
p342
ag341
asS'cherry tomatoes'
p343
(lp344
S'halved'
p345
aS'quartered'
p346
ag345
asS'brown sugar'
p347
(lp348
S'packed'
p349
ag349
asS'oregano'
p350
(lp351
S'crushed'
p352
ag352
asS'marmite'
p353
NsS'sun-dried tomatoes'
p354
(lp355
S'chopped'
p356
ag356
asS'cabbage'
p357
(lp358
S'shredded'
p359
aS'sliced'
p360
ag359
asS'lime'
p361
(lp362
S'juiced'
p363
aS'squeezed'
p364
ag363
asS'turkey'
p365
(lp366
S'sliced'
p367
ag367
asS'blue cheese'
p368
NsS'olives'
p369
(lp370
S'chopped'
p371
aS'pitted'
p372
ag371
asS'cheez whiz'
p373
NsS'yellow onion'
p374
(lp375
S'sliced'
p376
ag376
asS'beef'
p377
(lp378
S'sliced'
p379
ag379
asS'spinach'
p380
(lp381
S'dried'
p382
aS'mixed'
p383
ag382
asS'bean sprouts'
p384
NsS'provolone'
p385
NsS'yellow mustard'
p386
NsS'parsley'
p387
(lp388
S'chopped'
p389
aS'tied'
p390
ag389
asS'scallion'
p391
(lp392
S'sliced'
p393
aS'chopped'
p394
ag393
asS'yam'
p395
(lp396
S'diced'
p397
aS'peeled'
p398
ag397
asS'russet potato'
p399
(lp400
S'chopped'
p401
aS'peeled'
p402
ag401
asS'horseradish'
p403
(lp404
S'prepared'
p405
ag405
asS'water cress'
p406
NsS'rasins'
p407
NsS'egg noodles'
p408
NsS'tortilla strips'
p409
NsS'kiwi'
p410
(lp411
S'chopped'
p412
aS'sliced'
p413
ag412
asS'tomato'
p414
(lp415
S'halved'
p416
aS'seeded'
p417
ag416
asS'butternut squash'
p418
(lp419
S'seeded'
p420
aS'peeled'
p421
ag420
asS'crispy noodles'
p422
NsS'scallions'
p423
(lp424
S'sliced'
p425
aS'chopped'
p426
ag425
asS'lima beans'
p427
(lp428
S'frozen'
p429
aS'thawed'
p430
ag429
asS'peppers'
p431
(lp432
S'red'
p433
aS'minced'
p434
ag433
asS'strawberries'
p435
(lp436
S'frozen'
p437
aS'sliced'
p438
ag437
asS'sausages'
p439
NsS'liver'
p440
(lp441
S'toasted'
p442
aS'rinsed'
p443
ag442
asS'chipotle peppers'
p444
NsS'flowers'
p445
NsS'tomatillos'
p446
NsS'honey mustard'
p447
NsS'Greek yogurt'
p448
NsS'bow ties'
p449
NsS'frog legs'
p450
NsS'sweet potato'
p451
(lp452
S'peeled'
p453
ag453
asS'white onion'
p454
NsS'sriracha'
p455
(lp456
S'needed'
p457
ag457
asS'thousand island dressing'
p458
NsS'cottage cheese'
p459
NsS'coconut'
p460
(lp461
S'shredded'
p462
aS'toasted'
p463
ag462
asS'sirloin'
p464
(lp465
S'sliced'
p466
ag466
asS'carrots'
p467
(lp468
S'julienned'
p469
aS'sliced'
p470
ag469
asS'cricket'
p471
NsS'ginger'
p472
(lp473
S'minced'
p474
aS'grated'
p475
ag474
asS'honey'
p476
(lp477
S'cubed'
p478
aS'cored'
p479
ag478
asS'brussel sprouts'
p480
NsS'sunflower seeds'
p481
NsS'penne'
p482
NsS'apple cider vinegar'
p483
NsS'sprouts'
p484
NsS'glazed ham'
p485
NsS'shrimp'
p486
(lp487
S'deveined'
p488
aS'peeled'
p489
ag488
asS'onions'
p490
(lp491
S'sliced'
p492
aS'green'
p493
ag492
asS'beef tongue'
p494
NsS'cream'
p495
(lp496
S'whipped'
p497
aS'creamed'
p498
ag497
asS'sesame seeds'
p499
(lp500
S'toasted'
p501
ag501
asS'lemon'
p502
(lp503
S'juiced'
p504
aS'squeezed'
p505
ag504
asS'hazelnuts'
p506
(lp507
S'chopped'
p508
aS'toasted'
p509
ag508
asS'mint'
p510
(lp511
S'chopped'
p512
aS'packed'
p513
ag512
asS'chorizo'
p514
(lp515
S'removed'
p516
ag516
asS'saffron'
p517
NsS'blue cheese dressing'
p518
NsS'mango'
p519
(lp520
S'diced'
p521
aS'chopped'
p522
ag521
asS'mayonnaise'
p523
(lp524
S'rounded'
p525
ag525
asS'turkey breast'
p526
(lp527
S'sliced'
p528
ag528
asS'leek'
p529
NsS'tomatoes'
p530
(lp531
S'halved'
p532
aS'chopped'
p533
ag532
asS'zucchini'
p534
(lp535
S'sliced'
p536
ag536
asS'lime juice'
p537
(lp538
S'squeezed'
p539
aS'juiced'
p540
ag539
asS'coconut milk'
p541
NsS'pumpkin seeds'
p542
(lp543
S'rounded'
p544
aS'toasted'
p545
ag544
asS'bok choy'
p546
(lp547
S'mixed'
p548
aS'sliced'
p549
ag548
asS'pear'
p550
(lp551
S'diced'
p552
aS'peeled'
p553
ag552
asS'chorizo sausages'
p554
NsS'sweet peas'
p555
NsS'quinoa'
p556
NsS'gorgonzola'
p557
NsS'cucumber'
p558
(lp559
S'seeded'
p560
aS'diced'
p561
ag560
asS'couscous'
p562
(lp563
S'called'
p564
ag564
asS'salsa'
p565
NsS'tuna'
p566
(lp567
S'recommended'
p568
aS'flaked'
p569
ag568
asS'watercress'
p570
NsS'broccoli'
p571
(lp572
S'trimmed'
p573
aS'sliced'
p574
ag573
asS'butter'
p575
(lp576
S'unsalted'
p577
aS'seeded'
p578
ag577
asS'radishes'
p579
(lp580
S'sliced'
p581
ag581
asS'spaghetti squash'
p582
NsS'black eye peas'
p583
NsS'beets'
p584
(lp585
S'scrubbed'
p586
aS'red'
p587
ag586
asS'potato'
p588
(lp589
S'chopped'
p590
aS'peeled'
p591
ag590
asS'ranch'
p592
NsS'soy sauce'
p593
NsS'jalapenos'
p594
NsS'potatoesspaghetti squash'
p595
NsS'black beans'
p596
(lp597
S'rinsed'
p598
aS'drained'
p599
ag598
asS'chives'
p600
(lp601
S'chopped'
p602
ag602
asS'roast beef'
p603
NsS'beef stock'
p604
NsS'pineapple'
p605
(lp606
S'chopped'
p607
ag607
asS'chicken broth'
p608
NsS'red wine'
p609
(lp610
S'red'
p611
ag611
asS'chicken breast'
p612
(lp613
S'cubed'
p614
ag614
asS'egg'
p615
(lp616
S'beaten'
p617
aS'sliced'
p618
ag617
asS'bay leaves'
p619
Ns.