(dp0
S'alfalfa'
p1
NsS'olive oil'
p2
(lp3
S'infused'
p4
aS'recommended'
p5
ag4
asS'bell pepper'
p6
(lp7
S'red'
p8
aS'chopped'
p9
ag8
asS'mahi mahi fillets'
p10
NsS'hard boiled egg'
p11
(lp12
S'chopped'
p13
aS'boiled'
p14
ag13
asS'kale'
p15
(lp16
S'sliced'
p17
aS'chopped'
p18
ag17
asS'pepper flakes'
p19
(lp20
S'red'
p21
ag21
asS'cheddar'
p22
(lp23
S'grated'
p24
ag24
asS'sesame oil'
p25
(lp26
S'toasted'
p27
ag27
asS'fennel'
p28
(lp29
S'sliced'
p30
ag30
asS'kidney beans'
p31
(lp32
S'red'
p33
aS'drained'
p34
ag33
asS'parmesan'
p35
(lp36
S'grated'
p37
aS'shredded'
p38
ag37
asS'chicken'
p39
(lp40
S'roasted'
p41
aS'kitchen'
p42
ag41
asS'spam'
p43
NsS'milk'
p44
(lp45
S'mixed'
p46
aS'sweetened'
p47
ag46
asS'brie'
p48
NsS'dijon mustard'
p49
NsS'white wine'
p50
NsS'cilantro'
p51
(lp52
S'chopped'
p53
aS'minced'
p54
ag53
asS'thai salad dressing'
p55
NsS'ham'
p56
(lp57
S'broken'
p58
aS'prepared'
p59
ag58
asS'pork shoulder'
p60
NsS'avocado'
p61
(lp62
S'peeled'
p63
aS'pitted'
p64
ag63
asS'cayenne pepper'
p65
NsS'celery'
p66
(lp67
S'chopped'
p68
aS'minced'
p69
ag68
asS'pepperoncini'
p70
NsS'pancetta'
p71
(lp72
S'sliced'
p73
aS'chopped'
p74
ag73
asS'cashews'
p75
(lp76
S'chopped'
p77
aS'salted'
p78
ag77
asS'cranberries'
p79
(lp80
S'frozen'
p81
aS'sliced'
p82
ag81
asS'orange'
p83
(lp84
S'squeezed'
p85
aS'juiced'
p86
ag85
asS'peanuts'
p87
(lp88
S'roasted'
p89
aS'salted'
p90
ag89
asS'head cheese'
p91
NsS'rice'
p92
(lp93
S'brown'
p94
ag94
asS'glass noodles'
p95
NsS'feta cheese'
p96
NsS'acorn squash'
p97
NsS'anchovy'
p98
(lp99
S'chopped'
p100
ag100
asS'adobo sauce'
p101
NsS'pecans'
p102
(lp103
S'chopped'
p104
aS'toasted'
p105
ag104
asS'genoa salami'
p106
NsS'sage'
p107
(lp108
S'chopped'
p109
aS'removed'
p110
ag109
asS'italian dressing'
p111
NsS'cobra eggs'
p112
NsS'goat cheese'
p113
(lp114
S'broken'
p115
aS'chilled'
p116
ag115
asS'watermelon'
p117
(lp118
S'frozen'
p119
aS'seeded'
p120
ag119
asS'jack'
p121
NsS'tobasco'
p122
NsS'romaine lettuce'
p123
(lp124
S'chopped'
p125
aS'patted'
p126
ag125
asS'jicama'
p127
(lp128
S'sliced'
p129
aS'diced'
p130
ag129
asS'seaweed'
p131
NsS'ketchup'
p132
NsS'arugula'
p133
(lp134
S'packed'
p135
ag135
asS'red wine vinegar'
p136
(lp137
S'red'
p138
ag138
asS'hot mustard powder'
p139
NsS'onion'
p140
(lp141
S'sliced'
p142
aS'red'
p143
ag142
asS'thyme'
p144
(lp145
S'minced'
p146
aS'removed'
p147
ag146
asS'asparagus'
p148
(lp149
S'trimmed'
p150
aS'sliced'
p151
ag150
asS'cumin'
p152
NsS'caesar dressing'
p153
NsS'roast'
p154
(lp155
S'roasted'
p156
aS'salted'
p157
ag156
asS'blood pudding'
p158
NsS'hot mustard'
p159
NsS'steak'
p160
(lp161
S'sliced'
p162
aS'tenderized'
p163
ag162
asS'rosemary'
p164
(lp165
S'chopped'
p166
aS'removed'
p167
ag166
asS'vegetable broth'
p168
NsS'artichoke'
p169
(lp170
S'drained'
p171
aS'quartered'
p172
ag171
asS'anchovy paste'
p173
NsS'pork'
p174
NsS'clams'
p175
(lp176
S'reserved'
p177
ag177
asS'allspice'
p178
NsS'fish'
p179
NsS'bacon'
p180
(lp181
S'chopped'
p182
aS'crumbled'
p183
ag182
asS'pepper'
p184
(lp185
S'red'
p186
aS'sliced'
p187
ag186
asS'almonds'
p188
(lp189
S'toasted'
p190
aS'sliced'
p191
ag190
asS'crab meat'
p192
NsS'cricket flour'
p193
NsS'pickled onions'
p194
NsS'noodles'
p195
NsS'lentils'
p196
NsS'sausage'
p197
(lp198
S'removed'
p199
aS'crumbled'
p200
ag199
asS'honeydew'
p201
(lp202
S'cubed'
p203
ag203
asS'white vinegar'
p204
NsS'chili powder'
p205
NsS'jalapeno'
p206
(lp207
S'minced'
p208
aS'seeded'
p209
ag208
asS'turkey bacon'
p210
NsS'chicken stock'
p211
(lp212
S'kitchen'
p213
ag213
asS'worcestershire sauce'
p214
NsS'green onions'
p215
(lp216
S'green'
p217
aS'sliced'
p218
ag217
asS'elbows'
p219
NsS'chickpeas'
p220
(lp221
S'rinsed'
p222
aS'drained'
p223
ag222
asS'mussels'
p224
NsS'pomegranate seeds'
p225
NsS'croutons'
p226
NsS'basil'
p227
(lp228
S'chopped'
p229
aS'packed'
p230
ag229
asS'cloves'
p231
(lp232
S'minced'
p233
aS'chopped'
p234
ag233
asS'cantaloupe'
p235
(lp236
S'diced'
p237
aS'seeded'
p238
ag237
asS'cauliflower'
p239
NsS'salmon'
p240
(lp241
S'flaked'
p242
ag242
asS'corn'
p243
(lp244
S'frozen'
p245
aS'drained'
p246
ag245
asS'balsamic vinegar'
p247
NsS'walnuts'
p248
(lp249
S'toasted'
p250
aS'chopped'
p251
ag250
asS'water'
p252
(lp253
S'frozen'
p254
aS'cooked'
p255
ag254
asS'salami'
p256
(lp257
S'chopped'
p258
aS'diced'
p259
ag258
asS'grapes'
p260
(lp261
S'frozen'
p262
aS'chilled'
p263
ag262
asS'pine nuts'
p264
(lp265
S'toasted'
p266
ag266
asS'pasta'
p267
(lp268
S'cooked'
p269
ag269
asS'mozzarella'
p270
(lp271
S'sliced'
p272
aS'shredded'
p273
ag272
asS'broccolini'
p274
NsS'dates'
p275
(lp276
S'pitted'
p277
aS'chopped'
p278
ag277
asS'sour cream'
p279
(lp280
S'strained'
p281
ag281
asS'snails'
p282
NsS'canola oil'
p283
NsS'baby corn'
p284
NsS'potato chips'
p285
NsS'snow peas'
p286
NsS'garbanzo beans'
p287
(lp288
S'drained'
p289
aS'rinsed'
p290
ag289
asS'chili sauce'
p291
(lp292
S'sweet'
p293
ag293
asS'miracle fruit'
p294
NsS'rice noodles'
p295
NsS'vegetable stock'
p296
NsS'cinnamon'
p297
(lp298
S'broken'
p299
ag299
asS'eggplant'
p300
(lp301
S'sliced'
p302
aS'diced'
p303
ag302
asS'beef broth'
p304
NsS'garlic'
p305
(lp306
S'minced'
p307
aS'chopped'
p308
ag307
asS'curry'
p309
NsS'vegetable oil'
p310
NsS'cheese'
p311
(lp312
S'grated'
p313
aS'shredded'
p314
ag313
asS'apple'
p315
(lp316
S'cored'
p317
aS'chopped'
p318
ag317
asS'swiss cheese'
p319
NsS'red onion'
p320
(lp321
S'red'
p322
aS'sliced'
p323
ag322
asS'tofu'
p324
NsS'tenderloin'
p325
NsS'mushrooms'
p326
(lp327
S'halved'
p328
aS'sliced'
p329
ag328
asS'lettuce'
p330
(lp331
S'chopped'
p332
aS'patted'
p333
ag332
asS'loin'
p334
NsS'cherry tomatoes'
p335
(lp336
S'halved'
p337
aS'quartered'
p338
ag337
asS'brown sugar'
p339
(lp340
S'packed'
p341
ag341
asS'oregano'
p342
(lp343
S'crushed'
p344
ag344
asS'marmite'
p345
NsS'sun-dried tomatoes'
p346
(lp347
S'chopped'
p348
ag348
asS'cabbage'
p349
(lp350
S'shredded'
p351
ag351
asS'lime'
p352
(lp353
S'juiced'
p354
aS'squeezed'
p355
ag354
asS'turkey'
p356
NsS'blue cheese'
p357
NsS'olives'
p358
(lp359
S'chopped'
p360
aS'pitted'
p361
ag360
asS'cheez whiz'
p362
NsS'yellow onion'
p363
(lp364
S'sliced'
p365
ag365
asS'beef'
p366
NsS'spinach'
p367
(lp368
S'dried'
p369
aS'mixed'
p370
ag369
asS'bean sprouts'
p371
NsS'provolone'
p372
NsS'yellow mustard'
p373
NsS'parsley'
p374
(lp375
S'chopped'
p376
aS'tied'
p377
ag376
asS'scallion'
p378
(lp379
S'sliced'
p380
aS'chopped'
p381
ag380
asS'yam'
p382
(lp383
S'diced'
p384
aS'peeled'
p385
ag384
asS'russet potato'
p386
(lp387
S'chopped'
p388
aS'peeled'
p389
ag388
asS'horseradish'
p390
NsS'water cress'
p391
NsS'rasins'
p392
NsS'egg noodles'
p393
NsS'tortilla strips'
p394
NsS'kiwi'
p395
(lp396
S'chopped'
p397
aS'sliced'
p398
ag397
asS'tomato'
p399
(lp400
S'halved'
p401
aS'seeded'
p402
ag401
asS'butternut squash'
p403
(lp404
S'seeded'
p405
aS'peeled'
p406
ag405
asS'crispy noodles'
p407
NsS'scallions'
p408
(lp409
S'sliced'
p410
aS'chopped'
p411
ag410
asS'lima beans'
p412
(lp413
S'frozen'
p414
aS'thawed'
p415
ag414
asS'peppers'
p416
(lp417
S'red'
p418
aS'minced'
p419
ag418
asS'strawberries'
p420
(lp421
S'frozen'
p422
aS'sliced'
p423
ag422
asS'sausages'
p424
NsS'liver'
p425
(lp426
S'toasted'
p427
aS'rinsed'
p428
ag427
asS'chipotle peppers'
p429
NsS'flowers'
p430
NsS'tomatillos'
p431
NsS'honey mustard'
p432
NsS'Greek yogurt'
p433
NsS'bow ties'
p434
NsS'frog legs'
p435
NsS'sweet potato'
p436
(lp437
S'peeled'
p438
ag438
asS'white onion'
p439
NsS'sriracha'
p440
NsS'thousand island dressing'
p441
NsS'cottage cheese'
p442
NsS'coconut'
p443
(lp444
S'shredded'
p445
aS'toasted'
p446
ag445
asS'sirloin'
p447
NsS'carrots'
p448
(lp449
S'julienned'
p450
aS'chopped'
p451
ag450
asS'cricket'
p452
NsS'ginger'
p453
(lp454
S'grated'
p455
aS'minced'
p456
ag455
asS'honey'
p457
(lp458
S'cubed'
p459
aS'cored'
p460
ag459
asS'brussel sprouts'
p461
NsS'sunflower seeds'
p462
NsS'penne'
p463
NsS'apple cider vinegar'
p464
NsS'sprouts'
p465
NsS'glazed ham'
p466
NsS'shrimp'
p467
(lp468
S'deveined'
p469
ag469
asS'onions'
p470
(lp471
S'sliced'
p472
aS'diced'
p473
ag472
asS'beef tongue'
p474
NsS'cream'
p475
(lp476
S'whipped'
p477
aS'creamed'
p478
ag477
asS'sesame seeds'
p479
(lp480
S'toasted'
p481
ag481
asS'lemon'
p482
(lp483
S'juiced'
p484
aS'squeezed'
p485
ag484
asS'hazelnuts'
p486
(lp487
S'chopped'
p488
aS'toasted'
p489
ag488
asS'mint'
p490
(lp491
S'chopped'
p492
aS'packed'
p493
ag492
asS'chorizo'
p494
(lp495
S'removed'
p496
ag496
asS'saffron'
p497
NsS'blue cheese dressing'
p498
NsS'mango'
p499
(lp500
S'diced'
p501
aS'chopped'
p502
ag501
asS'mayonnaise'
p503
(lp504
S'rounded'
p505
ag505
asS'turkey breast'
p506
NsS'leek'
p507
NsS'tomatoes'
p508
(lp509
S'halved'
p510
aS'chopped'
p511
ag510
asS'zucchini'
p512
(lp513
S'sliced'
p514
ag514
asS'lime juice'
p515
(lp516
S'squeezed'
p517
aS'juiced'
p518
ag517
asS'coconut milk'
p519
NsS'pumpkin seeds'
p520
(lp521
S'rounded'
p522
aS'toasted'
p523
ag522
asS'bok choy'
p524
(lp525
S'mixed'
p526
ag526
asS'pear'
p527
(lp528
S'diced'
p529
aS'peeled'
p530
ag529
asS'chorizo sausages'
p531
NsS'sweet peas'
p532
NsS'quinoa'
p533
NsS'gorgonzola'
p534
NsS'cucumber'
p535
(lp536
S'seeded'
p537
aS'diced'
p538
ag537
asS'couscous'
p539
(lp540
S'called'
p541
ag541
asS'salsa'
p542
NsS'tuna'
p543
(lp544
S'recommended'
p545
aS'flaked'
p546
ag545
asS'watercress'
p547
NsS'broccoli'
p548
(lp549
S'mixed'
p550
aS'trimmed'
p551
ag550
asS'butter'
p552
(lp553
S'unsalted'
p554
aS'seeded'
p555
ag554
asS'radishes'
p556
(lp557
S'sliced'
p558
ag558
asS'spaghetti squash'
p559
NsS'black eye peas'
p560
NsS'beets'
p561
(lp562
S'scrubbed'
p563
aS'red'
p564
ag563
asS'potato'
p565
(lp566
S'chopped'
p567
aS'peeled'
p568
ag567
asS'ranch'
p569
NsS'soy sauce'
p570
NsS'jalapenos'
p571
NsS'potatoesspaghetti squash'
p572
NsS'black beans'
p573
(lp574
S'rinsed'
p575
aS'drained'
p576
ag575
asS'chives'
p577
(lp578
S'chopped'
p579
ag579
asS'roast beef'
p580
NsS'beef stock'
p581
NsS'pineapple'
p582
(lp583
S'chopped'
p584
ag584
asS'chicken broth'
p585
NsS'red wine'
p586
(lp587
S'red'
p588
ag588
asS'chicken breast'
p589
NsS'egg'
p590
(lp591
S'beaten'
p592
aS'sliced'
p593
ag592
asS'bay leaves'
p594
Ns.