(dp0
S'alfalfa'
p1
NsS'olive oil'
p2
(lp3
S'infused'
p4
aS'recommended'
p5
ag4
asS'bell pepper'
p6
(lp7
S'red'
p8
aS'chopped'
p9
ag8
asS'hard boiled egg'
p10
(lp11
S'chopped'
p12
aS'boiled'
p13
ag12
asS'kale'
p14
(lp15
S'sliced'
p16
aS'chopped'
p17
ag16
asS'cheddar'
p18
(lp19
S'grated'
p20
ag20
asS'sesame oil'
p21
(lp22
S'toasted'
p23
ag23
asS'fennel'
p24
(lp25
S'sliced'
p26
ag26
asS'kidney beans'
p27
(lp28
S'red'
p29
aS'drained'
p30
ag29
asS'parmesan'
p31
(lp32
S'grated'
p33
aS'shredded'
p34
ag33
asS'chicken'
p35
(lp36
S'roasted'
p37
aS'kitchen'
p38
ag37
asS'milk'
p39
(lp40
S'mixed'
p41
aS'sweetened'
p42
ag41
asS'white wine'
p43
NsS'cilantro'
p44
(lp45
S'chopped'
p46
aS'minced'
p47
ag46
asS'ham'
p48
(lp49
S'broken'
p50
aS'prepared'
p51
ag50
asS'avocado'
p52
(lp53
S'peeled'
p54
aS'pitted'
p55
ag54
asS'cayenne pepper'
p56
NsS'celery'
p57
(lp58
S'chopped'
p59
aS'minced'
p60
ag59
asS'cashews'
p61
(lp62
S'chopped'
p63
aS'salted'
p64
ag63
asS'cranberries'
p65
(lp66
S'frozen'
p67
aS'sliced'
p68
ag67
asS'orange'
p69
(lp70
S'squeezed'
p71
aS'juiced'
p72
ag71
asS'peanuts'
p73
(lp74
S'roasted'
p75
aS'salted'
p76
ag75
asS'rice'
p77
(lp78
S'brown'
p79
ag79
asS'glass noodles'
p80
NsS'feta cheese'
p81
NsS'anchovy'
p82
(lp83
S'chopped'
p84
ag84
asS'pecans'
p85
(lp86
S'chopped'
p87
aS'toasted'
p88
ag87
asS'goat cheese'
p89
(lp90
S'broken'
p91
aS'chilled'
p92
ag91
asS'watermelon'
p93
(lp94
S'frozen'
p95
aS'seeded'
p96
ag95
asS'jack'
p97
NsS'jicama'
p98
(lp99
S'sliced'
p100
aS'diced'
p101
ag100
asS'seaweed'
p102
NsS'onion'
p103
(lp104
S'sliced'
p105
aS'red'
p106
ag105
asS'thyme'
p107
(lp108
S'minced'
p109
aS'removed'
p110
ag109
asS'asparagus'
p111
(lp112
S'trimmed'
p113
aS'sliced'
p114
ag113
asS'cumin'
p115
NsS'roast'
p116
(lp117
S'roasted'
p118
aS'salted'
p119
ag118
asS'steak'
p120
(lp121
S'sliced'
p122
aS'tenderized'
p123
ag122
asS'rosemary'
p124
(lp125
S'chopped'
p126
aS'removed'
p127
ag126
asS'vegetable broth'
p128
NsS'artichoke'
p129
(lp130
S'drained'
p131
aS'quartered'
p132
ag131
asS'pork'
p133
NsS'clams'
p134
(lp135
S'reserved'
p136
ag136
asS'fish'
p137
NsS'bacon'
p138
(lp139
S'chopped'
p140
aS'crumbled'
p141
ag140
asS'pepper'
p142
(lp143
S'red'
p144
aS'sliced'
p145
ag144
asS'almonds'
p146
(lp147
S'toasted'
p148
aS'sliced'
p149
ag148
asS'crab meat'
p150
NsS'pickled onions'
p151
NsS'noodles'
p152
NsS'lentils'
p153
NsS'sausage'
p154
(lp155
S'removed'
p156
aS'crumbled'
p157
ag156
asS'honeydew'
p158
(lp159
S'cubed'
p160
ag160
asS'chili powder'
p161
NsS'jalapeno'
p162
(lp163
S'minced'
p164
aS'seeded'
p165
ag164
asS'chicken stock'
p166
(lp167
S'kitchen'
p168
ag168
asS'green onions'
p169
(lp170
S'green'
p171
aS'sliced'
p172
ag171
asS'elbows'
p173
NsS'chickpeas'
p174
(lp175
S'rinsed'
p176
aS'drained'
p177
ag176
asS'mussels'
p178
NsS'pomegranate seeds'
p179
NsS'croutons'
p180
NsS'basil'
p181
(lp182
S'chopped'
p183
aS'packed'
p184
ag183
asS'cloves'
p185
(lp186
S'minced'
p187
aS'chopped'
p188
ag187
asS'cantaloupe'
p189
(lp190
S'diced'
p191
aS'seeded'
p192
ag191
asS'cauliflower'
p193
NsS'salmon'
p194
(lp195
S'flaked'
p196
ag196
asS'corn'
p197
(lp198
S'frozen'
p199
aS'drained'
p200
ag199
asS'walnuts'
p201
(lp202
S'toasted'
p203
aS'chopped'
p204
ag203
asS'water'
p205
(lp206
S'frozen'
p207
aS'cooked'
p208
ag207
asS'salami'
p209
(lp210
S'chopped'
p211
aS'diced'
p212
ag211
asS'grapes'
p213
(lp214
S'frozen'
p215
aS'chilled'
p216
ag215
asS'pine nuts'
p217
(lp218
S'toasted'
p219
ag219
asS'pasta'
p220
(lp221
S'cooked'
p222
ag222
asS'mozzarella'
p223
(lp224
S'sliced'
p225
aS'shredded'
p226
ag225
asS'dates'
p227
(lp228
S'pitted'
p229
aS'chopped'
p230
ag229
asS'sour cream'
p231
(lp232
S'strained'
p233
ag233
asS'canola oil'
p234
NsS'baby corn'
p235
NsS'snow peas'
p236
NsS'garbanzo beans'
p237
(lp238
S'drained'
p239
aS'rinsed'
p240
ag239
asS'chili sauce'
p241
(lp242
S'sweet'
p243
ag243
asS'rice noodles'
p244
NsS'vegetable stock'
p245
NsS'cinnamon'
p246
(lp247
S'broken'
p248
ag248
asS'eggplant'
p249
(lp250
S'sliced'
p251
aS'diced'
p252
ag251
asS'beef broth'
p253
NsS'garlic'
p254
(lp255
S'minced'
p256
aS'chopped'
p257
ag256
asS'curry'
p258
NsS'vegetable oil'
p259
NsS'cheese'
p260
(lp261
S'grated'
p262
aS'shredded'
p263
ag262
asS'apple'
p264
(lp265
S'cored'
p266
aS'chopped'
p267
ag266
asS'red onion'
p268
(lp269
S'red'
p270
aS'sliced'
p271
ag270
asS'tofu'
p272
NsS'mushrooms'
p273
(lp274
S'halved'
p275
aS'sliced'
p276
ag275
asS'cherry tomatoes'
p277
(lp278
S'halved'
p279
aS'quartered'
p280
ag279
asS'brown sugar'
p281
(lp282
S'packed'
p283
ag283
asS'cabbage'
p284
(lp285
S'shredded'
p286
ag286
asS'lime'
p287
(lp288
S'juiced'
p289
aS'squeezed'
p290
ag289
asS'turkey'
p291
NsS'blue cheese'
p292
NsS'olives'
p293
(lp294
S'chopped'
p295
aS'pitted'
p296
ag295
asS'yellow onion'
p297
(lp298
S'sliced'
p299
ag299
asS'beef'
p300
NsS'spinach'
p301
(lp302
S'dried'
p303
aS'mixed'
p304
ag303
asS'bean sprouts'
p305
NsS'provolone'
p306
NsS'parsley'
p307
(lp308
S'chopped'
p309
aS'tied'
p310
ag309
asS'scallion'
p311
(lp312
S'sliced'
p313
aS'chopped'
p314
ag313
asS'yam'
p315
(lp316
S'diced'
p317
aS'peeled'
p318
ag317
asS'water cress'
p319
NsS'rasins'
p320
NsS'egg noodles'
p321
NsS'tortilla strips'
p322
NsS'kiwi'
p323
(lp324
S'chopped'
p325
aS'sliced'
p326
ag325
asS'tomato'
p327
(lp328
S'halved'
p329
aS'seeded'
p330
ag329
asS'butternut squash'
p331
(lp332
S'seeded'
p333
aS'peeled'
p334
ag333
asS'crispy noodles'
p335
NsS'lima beans'
p336
(lp337
S'frozen'
p338
aS'thawed'
p339
ag338
asS'peppers'
p340
(lp341
S'red'
p342
aS'minced'
p343
ag342
asS'strawberries'
p344
(lp345
S'frozen'
p346
aS'sliced'
p347
ag346
asS'flowers'
p348
NsS'tomatillos'
p349
NsS'bow ties'
p350
NsS'sweet potato'
p351
(lp352
S'peeled'
p353
ag353
asS'white onion'
p354
NsS'cottage cheese'
p355
NsS'coconut'
p356
(lp357
S'shredded'
p358
aS'toasted'
p359
ag358
asS'sirloin'
p360
NsS'carrots'
p361
(lp362
S'julienned'
p363
aS'chopped'
p364
ag363
asS'ginger'
p365
(lp366
S'grated'
p367
aS'minced'
p368
ag367
asS'brussel sprouts'
p369
NsS'sunflower seeds'
p370
NsS'penne'
p371
NsS'sprouts'
p372
NsS'shrimp'
p373
(lp374
S'deveined'
p375
ag375
asS'onions'
p376
(lp377
S'sliced'
p378
aS'diced'
p379
ag378
asS'cream'
p380
(lp381
S'whipped'
p382
aS'creamed'
p383
ag382
asS'sesame seeds'
p384
(lp385
S'toasted'
p386
ag386
asS'lemon'
p387
(lp388
S'juiced'
p389
aS'squeezed'
p390
ag389
asS'mint'
p391
(lp392
S'chopped'
p393
aS'packed'
p394
ag393
asS'chorizo'
p395
(lp396
S'removed'
p397
ag397
asS'saffron'
p398
NsS'mango'
p399
(lp400
S'diced'
p401
aS'chopped'
p402
ag401
asS'tomatoes'
p403
(lp404
S'halved'
p405
aS'chopped'
p406
ag405
asS'zucchini'
p407
(lp408
S'sliced'
p409
ag409
asS'coconut milk'
p410
NsS'pumpkin seeds'
p411
(lp412
S'rounded'
p413
aS'toasted'
p414
ag413
asS'bok choy'
p415
(lp416
S'mixed'
p417
ag417
asS'pear'
p418
(lp419
S'diced'
p420
aS'peeled'
p421
ag420
asS'sweet peas'
p422
NsS'quinoa'
p423
NsS'gorgonzola'
p424
NsS'cucumber'
p425
(lp426
S'seeded'
p427
aS'diced'
p428
ag427
asS'couscous'
p429
(lp430
S'called'
p431
ag431
asS'tuna'
p432
(lp433
S'recommended'
p434
aS'flaked'
p435
ag434
asS'broccoli'
p436
(lp437
S'mixed'
p438
aS'trimmed'
p439
ag438
asS'butter'
p440
(lp441
S'unsalted'
p442
aS'seeded'
p443
ag442
asS'radishes'
p444
(lp445
S'sliced'
p446
ag446
asS'spaghetti squash'
p447
NsS'black eye peas'
p448
NsS'beets'
p449
(lp450
S'scrubbed'
p451
aS'red'
p452
ag451
asS'potato'
p453
(lp454
S'chopped'
p455
aS'peeled'
p456
ag455
asS'soy sauce'
p457
NsS'jalapenos'
p458
NsS'black beans'
p459
(lp460
S'rinsed'
p461
aS'drained'
p462
ag461
asS'beef stock'
p463
NsS'pineapple'
p464
(lp465
S'chopped'
p466
ag466
asS'chicken broth'
p467
NsS'red wine'
p468
(lp469
S'red'
p470
ag470
asS'egg'
p471
(lp472
S'beaten'
p473
aS'sliced'
p474
ag473
as.