(dp0
S'alfalfa'
p1
NsS'olive oil'
p2
(lp3
S'infused'
p4
aS'recommended'
p5
ag4
asS'bell pepper'
p6
(lp7
S'red'
p8
aS'chopped'
p9
ag8
asS'hard boiled egg'
p10
(lp11
S'chopped'
p12
aS'boiled'
p13
ag12
asS'kale'
p14
(lp15
S'sliced'
p16
aS'chopped'
p17
ag16
asS'cheddar'
p18
(lp19
S'grated'
p20
ag20
asS'sesame oil'
p21
(lp22
S'toasted'
p23
ag23
asS'fennel'
p24
(lp25
S'sliced'
p26
ag26
asS'kidney beans'
p27
(lp28
S'red'
p29
aS'drained'
p30
ag29
asS'parmesan'
p31
(lp32
S'grated'
p33
aS'shredded'
p34
ag33
asS'chicken'
p35
(lp36
S'roasted'
p37
aS'kitchen'
p38
ag37
asS'spam'
p39
NsS'milk'
p40
(lp41
S'mixed'
p42
aS'sweetened'
p43
ag42
asS'white wine'
p44
NsS'cilantro'
p45
(lp46
S'chopped'
p47
aS'minced'
p48
ag47
asS'ham'
p49
(lp50
S'broken'
p51
aS'prepared'
p52
ag51
asS'avocado'
p53
(lp54
S'peeled'
p55
aS'pitted'
p56
ag55
asS'cayenne pepper'
p57
NsS'celery'
p58
(lp59
S'chopped'
p60
aS'minced'
p61
ag60
asS'cashews'
p62
(lp63
S'chopped'
p64
aS'salted'
p65
ag64
asS'cranberries'
p66
(lp67
S'frozen'
p68
aS'sliced'
p69
ag68
asS'orange'
p70
(lp71
S'squeezed'
p72
aS'juiced'
p73
ag72
asS'peanuts'
p74
(lp75
S'roasted'
p76
aS'salted'
p77
ag76
asS'head cheese'
p78
NsS'rice'
p79
(lp80
S'brown'
p81
ag81
asS'glass noodles'
p82
NsS'feta cheese'
p83
NsS'anchovy'
p84
(lp85
S'chopped'
p86
ag86
asS'pecans'
p87
(lp88
S'chopped'
p89
aS'toasted'
p90
ag89
asS'cobra eggs'
p91
NsS'goat cheese'
p92
(lp93
S'broken'
p94
aS'chilled'
p95
ag94
asS'watermelon'
p96
(lp97
S'frozen'
p98
aS'seeded'
p99
ag98
asS'jack'
p100
NsS'tobasco'
p101
NsS'jicama'
p102
(lp103
S'sliced'
p104
aS'diced'
p105
ag104
asS'seaweed'
p106
NsS'hot mustard powder'
p107
NsS'onion'
p108
(lp109
S'sliced'
p110
aS'red'
p111
ag110
asS'thyme'
p112
(lp113
S'minced'
p114
aS'removed'
p115
ag114
asS'asparagus'
p116
(lp117
S'trimmed'
p118
aS'sliced'
p119
ag118
asS'cumin'
p120
NsS'roast'
p121
(lp122
S'roasted'
p123
aS'salted'
p124
ag123
asS'blood pudding'
p125
NsS'steak'
p126
(lp127
S'sliced'
p128
aS'tenderized'
p129
ag128
asS'rosemary'
p130
(lp131
S'chopped'
p132
aS'removed'
p133
ag132
asS'vegetable broth'
p134
NsS'artichoke'
p135
(lp136
S'drained'
p137
aS'quartered'
p138
ag137
asS'pork'
p139
NsS'clams'
p140
(lp141
S'reserved'
p142
ag142
asS'fish'
p143
NsS'bacon'
p144
(lp145
S'chopped'
p146
aS'crumbled'
p147
ag146
asS'pepper'
p148
(lp149
S'red'
p150
aS'sliced'
p151
ag150
asS'almonds'
p152
(lp153
S'toasted'
p154
aS'sliced'
p155
ag154
asS'crab meat'
p156
NsS'cricket flour'
p157
NsS'pickled onions'
p158
NsS'noodles'
p159
NsS'lentils'
p160
NsS'sausage'
p161
(lp162
S'removed'
p163
aS'crumbled'
p164
ag163
asS'honeydew'
p165
(lp166
S'cubed'
p167
ag167
asS'chili powder'
p168
NsS'jalapeno'
p169
(lp170
S'minced'
p171
aS'seeded'
p172
ag171
asS'chicken stock'
p173
(lp174
S'kitchen'
p175
ag175
asS'green onions'
p176
(lp177
S'green'
p178
aS'sliced'
p179
ag178
asS'elbows'
p180
NsS'chickpeas'
p181
(lp182
S'rinsed'
p183
aS'drained'
p184
ag183
asS'mussels'
p185
NsS'pomegranate seeds'
p186
NsS'croutons'
p187
NsS'basil'
p188
(lp189
S'chopped'
p190
aS'packed'
p191
ag190
asS'cloves'
p192
(lp193
S'minced'
p194
aS'chopped'
p195
ag194
asS'cantaloupe'
p196
(lp197
S'diced'
p198
aS'seeded'
p199
ag198
asS'cauliflower'
p200
NsS'salmon'
p201
(lp202
S'flaked'
p203
ag203
asS'corn'
p204
(lp205
S'frozen'
p206
aS'drained'
p207
ag206
asS'walnuts'
p208
(lp209
S'toasted'
p210
aS'chopped'
p211
ag210
asS'water'
p212
(lp213
S'frozen'
p214
aS'cooked'
p215
ag214
asS'salami'
p216
(lp217
S'chopped'
p218
aS'diced'
p219
ag218
asS'grapes'
p220
(lp221
S'frozen'
p222
aS'chilled'
p223
ag222
asS'pine nuts'
p224
(lp225
S'toasted'
p226
ag226
asS'pasta'
p227
(lp228
S'cooked'
p229
ag229
asS'mozzarella'
p230
(lp231
S'sliced'
p232
aS'shredded'
p233
ag232
asS'dates'
p234
(lp235
S'pitted'
p236
aS'chopped'
p237
ag236
asS'sour cream'
p238
(lp239
S'strained'
p240
ag240
asS'snails'
p241
NsS'canola oil'
p242
NsS'baby corn'
p243
NsS'snow peas'
p244
NsS'garbanzo beans'
p245
(lp246
S'drained'
p247
aS'rinsed'
p248
ag247
asS'chili sauce'
p249
(lp250
S'sweet'
p251
ag251
asS'miracle fruit'
p252
NsS'rice noodles'
p253
NsS'vegetable stock'
p254
NsS'cinnamon'
p255
(lp256
S'broken'
p257
ag257
asS'eggplant'
p258
(lp259
S'sliced'
p260
aS'diced'
p261
ag260
asS'beef broth'
p262
NsS'garlic'
p263
(lp264
S'minced'
p265
aS'chopped'
p266
ag265
asS'curry'
p267
NsS'vegetable oil'
p268
NsS'cheese'
p269
(lp270
S'grated'
p271
aS'shredded'
p272
ag271
asS'apple'
p273
(lp274
S'cored'
p275
aS'chopped'
p276
ag275
asS'red onion'
p277
(lp278
S'red'
p279
aS'sliced'
p280
ag279
asS'tofu'
p281
NsS'mushrooms'
p282
(lp283
S'halved'
p284
aS'sliced'
p285
ag284
asS'cherry tomatoes'
p286
(lp287
S'halved'
p288
aS'quartered'
p289
ag288
asS'brown sugar'
p290
(lp291
S'packed'
p292
ag292
asS'marmite'
p293
NsS'cabbage'
p294
(lp295
S'shredded'
p296
ag296
asS'lime'
p297
(lp298
S'juiced'
p299
aS'squeezed'
p300
ag299
asS'turkey'
p301
NsS'blue cheese'
p302
NsS'olives'
p303
(lp304
S'chopped'
p305
aS'pitted'
p306
ag305
asS'cheez whiz'
p307
NsS'yellow onion'
p308
(lp309
S'sliced'
p310
ag310
asS'beef'
p311
NsS'spinach'
p312
(lp313
S'dried'
p314
aS'mixed'
p315
ag314
asS'bean sprouts'
p316
NsS'provolone'
p317
NsS'parsley'
p318
(lp319
S'chopped'
p320
aS'tied'
p321
ag320
asS'scallion'
p322
(lp323
S'sliced'
p324
aS'chopped'
p325
ag324
asS'yam'
p326
(lp327
S'diced'
p328
aS'peeled'
p329
ag328
asS'water cress'
p330
NsS'rasins'
p331
NsS'egg noodles'
p332
NsS'tortilla strips'
p333
NsS'kiwi'
p334
(lp335
S'chopped'
p336
aS'sliced'
p337
ag336
asS'tomato'
p338
(lp339
S'halved'
p340
aS'seeded'
p341
ag340
asS'butternut squash'
p342
(lp343
S'seeded'
p344
aS'peeled'
p345
ag344
asS'crispy noodles'
p346
NsS'lima beans'
p347
(lp348
S'frozen'
p349
aS'thawed'
p350
ag349
asS'peppers'
p351
(lp352
S'red'
p353
aS'minced'
p354
ag353
asS'strawberries'
p355
(lp356
S'frozen'
p357
aS'sliced'
p358
ag357
asS'liver'
p359
(lp360
S'toasted'
p361
aS'rinsed'
p362
ag361
asS'flowers'
p363
NsS'tomatillos'
p364
NsS'bow ties'
p365
NsS'frog legs'
p366
NsS'sweet potato'
p367
(lp368
S'peeled'
p369
ag369
asS'white onion'
p370
NsS'sriracha'
p371
NsS'cottage cheese'
p372
NsS'coconut'
p373
(lp374
S'shredded'
p375
aS'toasted'
p376
ag375
asS'sirloin'
p377
NsS'carrots'
p378
(lp379
S'julienned'
p380
aS'chopped'
p381
ag380
asS'cricket'
p382
NsS'ginger'
p383
(lp384
S'grated'
p385
aS'minced'
p386
ag385
asS'brussel sprouts'
p387
NsS'sunflower seeds'
p388
NsS'penne'
p389
NsS'sprouts'
p390
NsS'shrimp'
p391
(lp392
S'deveined'
p393
ag393
asS'onions'
p394
(lp395
S'sliced'
p396
aS'diced'
p397
ag396
asS'beef tongue'
p398
NsS'cream'
p399
(lp400
S'whipped'
p401
aS'creamed'
p402
ag401
asS'sesame seeds'
p403
(lp404
S'toasted'
p405
ag405
asS'lemon'
p406
(lp407
S'juiced'
p408
aS'squeezed'
p409
ag408
asS'mint'
p410
(lp411
S'chopped'
p412
aS'packed'
p413
ag412
asS'chorizo'
p414
(lp415
S'removed'
p416
ag416
asS'saffron'
p417
NsS'mango'
p418
(lp419
S'diced'
p420
aS'chopped'
p421
ag420
asS'tomatoes'
p422
(lp423
S'halved'
p424
aS'chopped'
p425
ag424
asS'zucchini'
p426
(lp427
S'sliced'
p428
ag428
asS'coconut milk'
p429
NsS'pumpkin seeds'
p430
(lp431
S'rounded'
p432
aS'toasted'
p433
ag432
asS'bok choy'
p434
(lp435
S'mixed'
p436
ag436
asS'pear'
p437
(lp438
S'diced'
p439
aS'peeled'
p440
ag439
asS'sweet peas'
p441
NsS'quinoa'
p442
NsS'gorgonzola'
p443
NsS'cucumber'
p444
(lp445
S'seeded'
p446
aS'diced'
p447
ag446
asS'couscous'
p448
(lp449
S'called'
p450
ag450
asS'tuna'
p451
(lp452
S'recommended'
p453
aS'flaked'
p454
ag453
asS'broccoli'
p455
(lp456
S'mixed'
p457
aS'trimmed'
p458
ag457
asS'butter'
p459
(lp460
S'unsalted'
p461
aS'seeded'
p462
ag461
asS'radishes'
p463
(lp464
S'sliced'
p465
ag465
asS'spaghetti squash'
p466
NsS'black eye peas'
p467
NsS'beets'
p468
(lp469
S'scrubbed'
p470
aS'red'
p471
ag470
asS'potato'
p472
(lp473
S'chopped'
p474
aS'peeled'
p475
ag474
asS'soy sauce'
p476
NsS'jalapenos'
p477
NsS'black beans'
p478
(lp479
S'rinsed'
p480
aS'drained'
p481
ag480
asS'beef stock'
p482
NsS'pineapple'
p483
(lp484
S'chopped'
p485
ag485
asS'chicken broth'
p486
NsS'red wine'
p487
(lp488
S'red'
p489
ag489
asS'egg'
p490
(lp491
S'beaten'
p492
aS'sliced'
p493
ag492
as.