(dp0
S'alfalfa'
p1
NsS'olive oil'
p2
(lp3
S'infused'
p4
aS'divided'
p5
ag4
asS'bell pepper'
p6
(lp7
S'seeded'
p8
aS'chopped'
p9
ag8
asS'mahi mahi fillets'
p10
NsS'hard boiled egg'
p11
(lp12
S'chopped'
p13
aS'boiled'
p14
ag13
asS'kale'
p15
(lp16
S'sliced'
p17
aS'packed'
p18
ag17
asS'pepper flakes'
p19
(lp20
S'crushed'
p21
ag21
asS'cheddar'
p22
(lp23
S'grated'
p24
aS'shredded'
p25
ag24
asS'sesame oil'
p26
(lp27
S'toasted'
p28
aS'divided'
p29
ag28
asS'fennel'
p30
(lp31
S'sliced'
p32
ag32
asS'kidney beans'
p33
(lp34
S'cooked'
p35
aS'rinsed'
p36
ag35
asS'parmesan'
p37
(lp38
S'grated'
p39
aS'shaved'
p40
ag39
asS'chicken'
p41
(lp42
S'cut'
p43
aS'chopped'
p44
ag43
asS'spam'
p45
NsS'milk'
p46
(lp47
S'chilled'
p48
aS'sweetened'
p49
ag48
asS'brie'
p50
NsS'dijon mustard'
p51
NsS'white wine'
p52
NsS'cilantro'
p53
(lp54
S'chopped'
p55
aS'minced'
p56
ag55
asS'thai salad dressing'
p57
NsS'ham'
p58
(lp59
S'broken'
p60
aS'prepared'
p61
ag60
asS'pork shoulder'
p62
(lp63
S'diced'
p64
ag64
asS'avocado'
p65
(lp66
S'diced'
p67
aS'peeled'
p68
ag67
asS'cayenne pepper'
p69
NsS'celery'
p70
(lp71
S'chopped'
p72
aS'sliced'
p73
ag72
asS'pepperoncini'
p74
NsS'pancetta'
p75
(lp76
S'sliced'
p77
aS'chopped'
p78
ag77
asS'cashews'
p79
(lp80
S'chopped'
p81
aS'salted'
p82
ag81
asS'cranberries'
p83
(lp84
S'dried'
p85
aS'sliced'
p86
ag85
asS'orange'
p87
(lp88
S'squeezed'
p89
aS'juiced'
p90
ag89
asS'peanuts'
p91
(lp92
S'roasted'
p93
aS'chopped'
p94
ag93
asS'head cheese'
p95
NsS'rice'
p96
(lp97
S'cooked'
p98
aS'brown'
p99
ag98
asS'glass noodles'
p100
NsS'feta cheese'
p101
(lp102
S'crumbled'
p103
ag103
asS'acorn squash'
p104
NsS'anchovy'
p105
(lp106
S'chopped'
p107
ag107
asS'adobo sauce'
p108
NsS'pecans'
p109
(lp110
S'chopped'
p111
aS'toasted'
p112
ag111
asS'genoa salami'
p113
NsS'sage'
p114
(lp115
S'chopped'
p116
aS'cut'
p117
ag116
asS'italian dressing'
p118
NsS'cobra eggs'
p119
NsS'goat cheese'
p120
(lp121
S'crumbled'
p122
aS'broken'
p123
ag122
asS'watermelon'
p124
(lp125
S'chopped'
p126
aS'seeded'
p127
ag126
asS'jack'
p128
(lp129
S'grated'
p130
aS'shredded'
p131
ag130
asS'tobasco'
p132
NsS'romaine lettuce'
p133
(lp134
S'chopped'
p135
aS'cut'
p136
ag135
asS'jicama'
p137
(lp138
S'peeled'
p139
aS'julienned'
p140
ag139
asS'seaweed'
p141
NsS'ketchup'
p142
NsS'arugula'
p143
(lp144
S'washed'
p145
aS'packed'
p146
ag145
asS'red wine vinegar'
p147
NsS'hot mustard powder'
p148
NsS'onion'
p149
(lp150
S'chopped'
p151
aS'sliced'
p152
ag151
asS'thyme'
p153
(lp154
S'dried'
p155
aS'chopped'
p156
ag155
asS'asparagus'
p157
(lp158
S'trimmed'
p159
aS'sliced'
p160
ag159
asS'cumin'
p161
NsS'caesar dressing'
p162
NsS'roast'
p163
(lp164
S'roasted'
p165
aS'chopped'
p166
ag165
asS'blood pudding'
p167
NsS'hot mustard'
p168
NsS'steak'
p169
(lp170
S'tenderized'
p171
aS'sliced'
p172
ag171
asS'rosemary'
p173
(lp174
S'chopped'
p175
aS'minced'
p176
ag175
asS'vegetable broth'
p177
NsS'artichoke'
p178
(lp179
S'quartered'
p180
aS'marinated'
p181
ag180
asS'anchovy paste'
p182
NsS'pork'
p183
(lp184
S'trimmed'
p185
aS'diced'
p186
ag185
asS'clams'
p187
(lp188
S'chopped'
p189
aS'reserved'
p190
ag189
asS'allspice'
p191
NsS'fish'
p192
NsS'bacon'
p193
(lp194
S'cut'
p195
aS'chopped'
p196
ag195
asS'pepper'
p197
(lp198
S'seeded'
p199
aS'ground'
p200
ag199
asS'almonds'
p201
(lp202
S'toasted'
p203
aS'sliced'
p204
ag203
asS'crab meat'
p205
NsS'cricket flour'
p206
NsS'pickled onions'
p207
NsS'noodles'
p208
(lp209
S'discarded'
p210
aS'cooked'
p211
ag210
asS'lentils'
p212
NsS'sausage'
p213
(lp214
S'cut'
p215
aS'chopped'
p216
ag215
asS'honeydew'
p217
(lp218
S'melon'
p219
aS'cubed'
p220
ag219
asS'white vinegar'
p221
(lp222
S'distilled'
p223
ag223
asS'chili powder'
p224
NsS'jalapeno'
p225
(lp226
S'seeded'
p227
aS'minced'
p228
ag227
asS'turkey bacon'
p229
NsS'chicken stock'
p230
NsS'worcestershire sauce'
p231
NsS'green onions'
p232
(lp233
S'chopped'
p234
aS'green'
p235
ag234
asS'elbows'
p236
NsS'chickpeas'
p237
(lp238
S'rinsed'
p239
aS'drained'
p240
ag239
asS'mussels'
p241
NsS'pomegranate seeds'
p242
NsS'croutons'
p243
(lp244
S'bread'
p245
ag245
asS'basil'
p246
(lp247
S'chopped'
p248
aS'packed'
p249
ag248
asS'cloves'
p250
(lp251
S'minced'
p252
aS'chopped'
p253
ag252
asS'cantaloupe'
p254
(lp255
S'diced'
p256
aS'cut'
p257
ag256
asS'cauliflower'
p258
(lp259
S'trimmed'
p260
ag260
asS'salmon'
p261
(lp262
S'cooked'
p263
aS'flaked'
p264
ag263
asS'corn'
p265
(lp266
S'cut'
p267
aS'shucked'
p268
ag267
asS'balsamic vinegar'
p269
NsS'walnuts'
p270
(lp271
S'chopped'
p272
aS'toasted'
p273
ag272
asS'water'
p274
(lp275
S'drained'
p276
aS'chopped'
p277
ag276
asS'salami'
p278
(lp279
S'chopped'
p280
aS'cut'
p281
ag280
asS'grapes'
p282
(lp283
S'halved'
p284
aS'chilled'
p285
ag284
asS'pine nuts'
p286
(lp287
S'toasted'
p288
ag288
asS'pasta'
p289
(lp290
S'cooked'
p291
aS'shocked'
p292
ag291
asS'mozzarella'
p293
(lp294
S'shredded'
p295
aS'sliced'
p296
ag295
asS'broccolini'
p297
NsS'dates'
p298
(lp299
S'pitted'
p300
aS'chopped'
p301
ag300
asS'sour cream'
p302
(lp303
S'strained'
p304
ag304
asS'snails'
p305
NsS'canola oil'
p306
(lp307
S'divided'
p308
ag308
asS'baby corn'
p309
NsS'potato chips'
p310
NsS'snow peas'
p311
NsS'garbanzo beans'
p312
(lp313
S'drained'
p314
aS'rinsed'
p315
ag314
asS'chili sauce'
p316
(lp317
S'sweet'
p318
aS'jarred'
p319
ag318
asS'miracle fruit'
p320
NsS'rice noodles'
p321
NsS'vegetable stock'
p322
NsS'cinnamon'
p323
(lp324
S'ground'
p325
aS'snapped'
p326
ag325
asS'eggplant'
p327
(lp328
S'sliced'
p329
aS'diced'
p330
ag329
asS'beef broth'
p331
(lp332
S'canned'
p333
ag333
asS'garlic'
p334
(lp335
S'minced'
p336
aS'chopped'
p337
ag336
asS'curry'
p338
NsS'vegetable oil'
p339
NsS'cheese'
p340
(lp341
S'grated'
p342
aS'crumbled'
p343
ag342
asS'apple'
p344
(lp345
S'cored'
p346
aS'chopped'
p347
ag346
asS'swiss cheese'
p348
NsS'red onion'
p349
(lp350
S'sliced'
p351
aS'chopped'
p352
ag351
asS'tofu'
p353
(lp354
S'sliced'
p355
aS'drained'
p356
ag355
asS'tenderloin'
p357
(lp358
S'trimmed'
p359
ag359
asS'mushrooms'
p360
(lp361
S'sliced'
p362
aS'halved'
p363
ag362
asS'lettuce'
p364
(lp365
S'chopped'
p366
aS'cut'
p367
ag366
asS'loin'
p368
(lp369
S'trimmed'
p370
aS'cut'
p371
ag370
asS'cherry tomatoes'
p372
(lp373
S'halved'
p374
aS'quartered'
p375
ag374
asS'brown sugar'
p376
(lp377
S'packed'
p378
ag378
asS'oregano'
p379
(lp380
S'dried'
p381
aS'chopped'
p382
ag381
asS'marmite'
p383
NsS'sun-dried tomatoes'
p384
(lp385
S'drained'
p386
aS'chopped'
p387
ag386
asS'cabbage'
p388
(lp389
S'shredded'
p390
aS'chopped'
p391
ag390
asS'lime'
p392
(lp393
S'juiced'
p394
aS'zested'
p395
ag394
asS'turkey'
p396
(lp397
S'cut'
p398
aS'smoked'
p399
ag398
asS'blue cheese'
p400
NsS'olives'
p401
(lp402
S'pitted'
p403
aS'chopped'
p404
ag403
asS'cheez whiz'
p405
NsS'yellow onion'
p406
(lp407
S'chopped'
p408
aS'sliced'
p409
ag408
asS'beef'
p410
(lp411
S'cut'
p412
aS'canned'
p413
ag412
asS'spinach'
p414
(lp415
S'packed'
p416
aS'washed'
p417
ag416
asS'bean sprouts'
p418
NsS'provolone'
p419
(lp420
S'cut'
p421
ag421
asS'yellow mustard'
p422
NsS'parsley'
p423
(lp424
S'chopped'
p425
aS'packed'
p426
ag425
asS'scallion'
p427
(lp428
S'chopped'
p429
aS'sliced'
p430
ag429
asS'yam'
p431
(lp432
S'peeled'
p433
aS'diced'
p434
ag433
asS'russet potato'
p435
(lp436
S'peeled'
p437
aS'chopped'
p438
ag437
asS'horseradish'
p439
NsS'water cress'
p440
NsS'rasins'
p441
NsS'egg noodles'
p442
NsS'tortilla strips'
p443
NsS'kiwi'
p444
(lp445
S'peeled'
p446
aS'chopped'
p447
ag446
asS'tomato'
p448
(lp449
S'halved'
p450
aS'chopped'
p451
ag450
asS'butternut squash'
p452
(lp453
S'seeded'
p454
aS'peeled'
p455
ag454
asS'crispy noodles'
p456
NsS'scallions'
p457
(lp458
S'sliced'
p459
aS'chopped'
p460
ag459
asS'lima beans'
p461
(lp462
S'defrosted'
p463
aS'thawed'
p464
ag463
asS'peppers'
p465
(lp466
S'seeded'
p467
aS'minced'
p468
ag467
asS'strawberries'
p469
(lp470
S'sliced'
p471
aS'hulled'
p472
ag471
asS'sausages'
p473
NsS'liver'
p474
(lp475
S'slivered'
p476
aS'toasted'
p477
ag476
asS'chipotle peppers'
p478
NsS'flowers'
p479
NsS'tomatillos'
p480
NsS'honey mustard'
p481
NsS'Greek yogurt'
p482
NsS'bow ties'
p483
NsS'frog legs'
p484
NsS'sweet potato'
p485
(lp486
S'peeled'
p487
ag487
asS'white onion'
p488
(lp489
S'chopped'
p490
ag490
asS'sriracha'
p491
NsS'thousand island dressing'
p492
NsS'cottage cheese'
p493
NsS'coconut'
p494
(lp495
S'shredded'
p496
aS'toasted'
p497
ag496
asS'sirloin'
p498
(lp499
S'trimmed'
p500
aS'cut'
p501
ag500
asS'carrots'
p502
(lp503
S'peeled'
p504
aS'shredded'
p505
ag504
asS'cricket'
p506
NsS'ginger'
p507
(lp508
S'peeled'
p509
aS'grated'
p510
ag509
asS'honey'
p511
(lp512
S'melon'
p513
aS'cubed'
p514
ag513
asS'brussel sprouts'
p515
NsS'sunflower seeds'
p516
NsS'penne'
p517
NsS'apple cider vinegar'
p518
NsS'sprouts'
p519
NsS'glazed ham'
p520
NsS'shrimp'
p521
(lp522
S'deveined'
p523
aS'peeled'
p524
ag523
asS'onions'
p525
(lp526
S'chopped'
p527
aS'sliced'
p528
ag527
asS'beef tongue'
p529
NsS'cream'
p530
(lp531
S'whipped'
p532
aS'creamed'
p533
ag532
asS'sesame seeds'
p534
(lp535
S'toasted'
p536
ag536
asS'lemon'
p537
(lp538
S'juiced'
p539
aS'zested'
p540
ag539
asS'hazelnuts'
p541
(lp542
S'chopped'
p543
aS'toasted'
p544
ag543
asS'mint'
p545
(lp546
S'chopped'
p547
aS'washed'
p548
ag547
asS'chorizo'
p549
(lp550
S'chopped'
p551
ag551
asS'saffron'
p552
NsS'blue cheese dressing'
p553
NsS'mango'
p554
(lp555
S'chopped'
p556
aS'diced'
p557
ag556
asS'mayonnaise'
p558
(lp559
S'rounded'
p560
ag560
asS'turkey breast'
p561
NsS'leek'
p562
(lp563
S'chopped'
p564
ag564
asS'tomatoes'
p565
(lp566
S'halved'
p567
aS'chopped'
p568
ag567
asS'zucchini'
p569
(lp570
S'cut'
p571
aS'sliced'
p572
ag571
asS'lime juice'
p573
(lp574
S'juiced'
p575
aS'squeezed'
p576
ag575
asS'coconut milk'
p577
NsS'pumpkin seeds'
p578
(lp579
S'rounded'
p580
aS'toasted'
p581
ag580
asS'bok choy'
p582
(lp583
S'sliced'
p584
aS'chopped'
p585
ag584
asS'pear'
p586
(lp587
S'cored'
p588
aS'sliced'
p589
ag588
asS'chorizo sausages'
p590
NsS'sweet peas'
p591
NsS'quinoa'
p592
NsS'gorgonzola'
p593
(lp594
S'crumbled'
p595
ag595
asS'cucumber'
p596
(lp597
S'peeled'
p598
aS'diced'
p599
ag598
asS'couscous'
p600
(lp601
S'uncooked'
p602
aS'called'
p603
ag602
asS'salsa'
p604
(lp605
S'jarred'
p606
ag606
asS'tuna'
p607
(lp608
S'drained'
p609
aS'flaked'
p610
ag609
asS'watercress'
p611
NsS'broccoli'
p612
(lp613
S'cut'
p614
aS'mixed'
p615
ag614
asS'butter'
p616
(lp617
S'unsalted'
p618
aS'softened'
p619
ag618
asS'radishes'
p620
(lp621
S'sliced'
p622
aS'trimmed'
p623
ag622
asS'spaghetti squash'
p624
NsS'black eye peas'
p625
NsS'beets'
p626
(lp627
S'trimmed'
p628
aS'scrubbed'
p629
ag628
asS'potato'
p630
(lp631
S'peeled'
p632
aS'chopped'
p633
ag632
asS'ranch'
p634
NsS'soy sauce'
p635
(lp636
S'divided'
p637
ag637
asS'jalapenos'
p638
(lp639
S'pickled'
p640
ag640
asS'potatoesspaghetti squash'
p641
NsS'black beans'
p642
(lp643
S'rinsed'
p644
aS'drained'
p645
ag644
asS'chives'
p646
(lp647
S'chopped'
p648
aS'snipped'
p649
ag648
asS'roast beef'
p650
NsS'beef stock'
p651
NsS'pineapple'
p652
(lp653
S'chopped'
p654
aS'diced'
p655
ag654
asS'chicken broth'
p656
NsS'red wine'
p657
NsS'chicken breast'
p658
(lp659
S'chopped'
p660
aS'diced'
p661
ag660
asS'egg'
p662
(lp663
S'sliced'
p664
aS'chopped'
p665
ag664
asS'bay leaves'
p666
Ns.