(dp0
S'alfalfa'
p1
NsS'hard boiled egg'
p2
(lp3
S'chopped'
p4
aS'boiled'
p5
ag4
asS'cheddar'
p6
(lp7
S'grated'
p8
ag8
asS'sesame oil'
p9
(lp10
S'toasted'
p11
ag11
asS'kidney beans'
p12
(lp13
S'red'
p14
aS'drained'
p15
ag14
asS'parmesan'
p16
(lp17
S'grated'
p18
aS'shredded'
p19
ag18
asS'chicken'
p20
(lp21
S'roasted'
p22
aS'kitchen'
p23
ag22
asS'cilantro'
p24
(lp25
S'chopped'
p26
aS'minced'
p27
ag26
asS'ham'
p28
NsS'avocado'
p29
(lp30
S'sliced'
p31
aS'diced'
p32
ag31
asS'cayenne pepper'
p33
NsS'celery'
p34
(lp35
S'chopped'
p36
aS'minced'
p37
ag36
asS'cashews'
p38
(lp39
S'chopped'
p40
aS'salted'
p41
ag40
asS'cranberries'
p42
(lp43
S'frozen'
p44
aS'sliced'
p45
ag44
asS'orange'
p46
(lp47
S'squeezed'
p48
aS'juiced'
p49
ag48
asS'peanuts'
p50
(lp51
S'salted'
p52
aS'roasted'
p53
ag52
asS'feta cheese'
p54
NsS'anchovy'
p55
(lp56
S'chopped'
p57
ag57
asS'pecans'
p58
(lp59
S'chopped'
p60
aS'toasted'
p61
ag60
asS'goat cheese'
p62
NsS'watermelon'
p63
(lp64
S'frozen'
p65
aS'seeded'
p66
ag65
asS'jack'
p67
NsS'jicama'
p68
(lp69
S'sliced'
p70
aS'diced'
p71
ag70
asS'asparagus'
p72
(lp73
S'trimmed'
p74
aS'sliced'
p75
ag74
asS'steak'
p76
(lp77
S'sliced'
p78
aS'tenderized'
p79
ag78
asS'artichoke'
p80
(lp81
S'drained'
p82
aS'quartered'
p83
ag82
asS'fish'
p84
NsS'bacon'
p85
(lp86
S'chopped'
p87
aS'crumbled'
p88
ag87
asS'pepper'
p89
(lp90
S'red'
p91
aS'sliced'
p92
ag91
asS'almonds'
p93
(lp94
S'toasted'
p95
aS'sliced'
p96
ag95
asS'crab meat'
p97
NsS'pickled onions'
p98
NsS'sausage'
p99
(lp100
S'removed'
p101
aS'crumbled'
p102
ag101
asS'honeydew'
p103
(lp104
S'cubed'
p105
ag105
asS'chickpeas'
p106
(lp107
S'rinsed'
p108
aS'drained'
p109
ag108
asS'pomegranate seeds'
p110
NsS'croutons'
p111
NsS'basil'
p112
(lp113
S'chopped'
p114
aS'packed'
p115
ag114
asS'cantaloupe'
p116
(lp117
S'diced'
p118
aS'seeded'
p119
ag118
asS'cauliflower'
p120
NsS'salmon'
p121
(lp122
S'flaked'
p123
ag123
asS'corn'
p124
(lp125
S'frozen'
p126
aS'drained'
p127
ag126
asS'walnuts'
p128
(lp129
S'toasted'
p130
ag130
asS'salami'
p131
(lp132
S'chopped'
p133
aS'diced'
p134
ag133
asS'grapes'
p135
(lp136
S'frozen'
p137
ag137
asS'pine nuts'
p138
(lp139
S'toasted'
p140
ag140
asS'mozzarella'
p141
(lp142
S'sliced'
p143
aS'shredded'
p144
ag143
asS'dates'
p145
(lp146
S'pitted'
p147
aS'halved'
p148
ag147
asS'baby corn'
p149
NsS'snow peas'
p150
NsS'garbanzo beans'
p151
(lp152
S'drained'
p153
aS'rinsed'
p154
ag153
asS'chili sauce'
p155
(lp156
S'sweet'
p157
ag157
asS'eggplant'
p158
(lp159
S'sliced'
p160
aS'diced'
p161
ag160
asS'garlic'
p162
(lp163
S'minced'
p164
aS'chopped'
p165
ag164
asS'apple'
p166
(lp167
S'cored'
p168
aS'sliced'
p169
ag168
asS'red onion'
p170
(lp171
S'red'
p172
aS'sliced'
p173
ag172
asS'tofu'
p174
NsS'mushrooms'
p175
(lp176
S'sliced'
p177
aS'diced'
p178
ag177
asS'cherry tomatoes'
p179
(lp180
S'halved'
p181
aS'quartered'
p182
ag181
asS'cabbage'
p183
(lp184
S'shredded'
p185
ag185
asS'lime'
p186
(lp187
S'juiced'
p188
aS'squeezed'
p189
ag188
asS'turkey'
p190
NsS'blue cheese'
p191
NsS'olives'
p192
(lp193
S'chopped'
p194
aS'pitted'
p195
ag194
asS'beef'
p196
NsS'bean sprouts'
p197
NsS'provolone'
p198
NsS'parsley'
p199
(lp200
S'chopped'
p201
aS'tied'
p202
ag201
asS'scallion'
p203
(lp204
S'sliced'
p205
aS'chopped'
p206
ag205
asS'yam'
p207
(lp208
S'diced'
p209
aS'peeled'
p210
ag209
asS'water cress'
p211
NsS'rasins'
p212
NsS'tortilla strips'
p213
NsS'kiwi'
p214
(lp215
S'chopped'
p216
aS'sliced'
p217
ag216
asS'crispy noodles'
p218
NsS'lima beans'
p219
(lp220
S'frozen'
p221
aS'thawed'
p222
ag221
asS'peppers'
p223
(lp224
S'red'
p225
aS'minced'
p226
ag225
asS'strawberries'
p227
(lp228
S'sliced'
p229
aS'frozen'
p230
ag229
asS'flowers'
p231
NsS'sweet potato'
p232
(lp233
S'peeled'
p234
ag234
asS'cottage cheese'
p235
NsS'coconut'
p236
(lp237
S'shredded'
p238
aS'toasted'
p239
ag238
asS'carrots'
p240
(lp241
S'julienned'
p242
aS'chopped'
p243
ag242
asS'ginger'
p244
(lp245
S'grated'
p246
aS'minced'
p247
ag246
asS'brussel sprouts'
p248
NsS'sunflower seeds'
p249
NsS'sprouts'
p250
NsS'shrimp'
p251
(lp252
S'deveined'
p253
ag253
asS'onions'
p254
(lp255
S'sliced'
p256
aS'diced'
p257
ag256
asS'sesame seeds'
p258
(lp259
S'toasted'
p260
ag260
asS'lemon'
p261
(lp262
S'squeezed'
p263
aS'juiced'
p264
ag263
asS'mint'
p265
(lp266
S'chopped'
p267
ag267
asS'tomatoes'
p268
(lp269
S'halved'
p270
aS'chopped'
p271
ag270
asS'zucchini'
p272
(lp273
S'sliced'
p274
ag274
asS'pumpkin seeds'
p275
(lp276
S'rounded'
p277
aS'toasted'
p278
ag277
asS'bok choy'
p279
(lp280
S'mixed'
p281
ag281
asS'pear'
p282
(lp283
S'diced'
p284
aS'peeled'
p285
ag284
asS'sweet peas'
p286
NsS'quinoa'
p287
NsS'gorgonzola'
p288
NsS'cucumber'
p289
(lp290
S'seeded'
p291
aS'sliced'
p292
ag291
asS'couscous'
p293
(lp294
S'called'
p295
ag295
asS'tuna'
p296
(lp297
S'recommended'
p298
aS'flaked'
p299
ag298
asS'broccoli'
p300
(lp301
S'mixed'
p302
aS'trimmed'
p303
ag302
asS'radishes'
p304
(lp305
S'sliced'
p306
ag306
asS'spaghetti squash'
p307
NsS'black eye peas'
p308
NsS'beets'
p309
(lp310
S'scrubbed'
p311
ag311
asS'soy sauce'
p312
NsS'jalapenos'
p313
NsS'mango'
p314
(lp315
S'diced'
p316
aS'chopped'
p317
ag316
asS'pineapple'
p318
(lp319
S'chopped'
p320
ag320
asS'egg'
p321
(lp322
S'beaten'
p323
aS'sliced'
p324
ag323
as.