(lp1
ccopy_reg
_reconstructor
p2
(c__main__
Recipe
p3
c__builtin__
object
p4
NtRp5
(dp6
S'url'
p7
S'http://www.foodnetwork.com/recipes/emeril-lagasse/vegetarian-chili-recipe.html'
p8
sS'ingredients'
p9
S'[* 2 tablespoons canola oil, * 1 1/2 cups chopped yellow onions, * 1 cup chopped red bell peppers, * 2 tablespoons minced garlic, * 2 to 3 serrano peppers, stemmed, seeded, and minced, depending upon taste, * 1 medium zucchini, stem ends trimmed and cut into small dice, * 2 cups fresh corn kernels (about 3 ears), * 1 1/2 pounds portobello mushrooms (about 5 large), stemmed, wiped clean and cubed, * 2 tablespoons chili powder, * 1 tablespooon ground cumin, * 1 1/4 teaspoons salt, * 1/4 teaspoon cayenne, * 4 large tomatoes, peeled, seeded and chopped, * 3 cups cooked black beans, or canned beans, rinsed and drained, * 1 (15-ounce) can tomato sauce, * 1 cup vegetable stock, or water, * 1/4 cup chopped fresh cilantro leaves, * cooked brown rice, accompaniment, * sour cream or strained plain yogurt, garnish, * diced avocado, garnish, * essence, recipe follows, garnish, * chopped green onions, garnish, * 2 1/2 tablespoons paprika, * 2 tablespoons salt, * 2 tablespoons garlic powder, * 1 tablespoon black pepper, * 1 tablespoon onion powder, * 1 tablespoon cayenne pepper, * 1 tablespoon dried oregano, * 1 tablespoon dried thyme]'
p10
sbag2
(g3
g4
NtRp11
(dp12
g7
S'http://www.foodnetwork.com/recipes/paula-deen/broccoli-salad-recipe.html'
p13
sg9
S'[* 1 head broccoli, * 6 to 8 slices cooked bacon, crumbled, * 1/2 cup chopped red onion, * 1/2 cup raisins, optional, * 8 ounces sharp cheddar, cut into very small chunks, * 1 cup mayonnaise, * 2 tablespoons white vinegar, * 1/4 cup sugar, * 1/2 cup halved cherry tomatoes, * salt and freshly ground black pepper]'
p14
sbag2
(g3
g4
NtRp15
(dp16
g7
S'http://www.foodnetwork.com/recipes/trisha-yearwood/strawberry-salad-recipe.html'
p17
sg9
S'[* 1 package ramen noodles, crushed, flavor packet discarded, * 1/4 cup sliced almonds, * 1/4 cup sunflower seeds, * 1/4 cup (1/2 stick) butter, melted, * 1 head romaine lettuce, washed and dried, * one 5-ounce bag baby spinach, * 1 pint strawberries, hulled and thinly sliced, * 1 cup grated parmesan, * 3/4 cup sugar, * 1/2 cup red wine vinegar, * 3/4 cup vegetable oil, * 1/2 teaspoon paprika, * 1/2 teaspoons salt, * 2 cloves garlic, minced]'
p18
sbag2
(g3
g4
NtRp19
(dp20
g7
S'http://www.foodnetwork.com/recipes/ellie-krieger/cucumber-salad-recipe.html'
p21
sg9
S'[* 2 english cucumbers (2 pounds), * 1 small red onion, * 1 1/2 tablespoons salt, * 1 tablespoon plus 1 teaspoon white wine vinegar or sherry vinegar, * 1 teaspoon sugar, * 2 teaspoons dried dill or 2 tablespoons fresh]'
p22
sbag2
(g3
g4
NtRp23
(dp24
g7
S'http://www.foodnetwork.com/recipes/ina-garten/shrimp-salad-recipe.html'
p25
sg9
S'[* 3 tablespoons plus 1 teaspoon kosher salt, * 1 lemon cut into quarters, * 4 pounds large shrimp in the shell (16 to 20 shrimp per pound), * 2 cups good mayonnaise, * 1 teaspoon dijon mustard, * 2 tablespoons white wine or white wine vinegar, * 1 teaspoon freshly ground black pepper, * 6 tablespoons minced fresh dill, * 1 cup minced red onion (1 onion), * 3 cups minced celery (6 stalks)]'
p26
sbag2
(g3
g4
NtRp27
(dp28
g7
S'http://www.foodnetwork.com/recipes/giada-de-laurentiis/mediterranean-salad-recipe.html'
p29
sg9
S'[* 3 tablespoons extra-virgin olive oil, plus 1/4 cup, * 2 cloves garlic, minced, * 1 (1-pound) box israeli couscous (or any small pasta), * 3 cups chicken stock, * 2 lemons, juiced, * 1 lemon, zested, * 1/2 teaspoon salt, * 1/2 teaspoon freshly ground black pepper, * 1 cup chopped fresh basil leaves, * 1/2 cup chopped fresh mint leaves, * 1/4 cup dried cranberries, * 1/4 cup slivered almonds, toasted]'
p30
sbag2
(g3
g4
NtRp31
(dp32
g7
S'http://www.foodnetwork.com/recipes/guy-fieri/jicama-slaw-recipe.html'
p33
sg9
S'[* 3 tablespoons lime juice, * 1/2 teaspoon red chili flakes, * 1/2 teaspoon chili powder, * 6 tablespoons rice wine vinegar, * 1 teaspoon sugar, * 6 tablespoons extra-virgin olive oil, * 1 teaspoon salt, * 1 teaspoon pepper, * 1 1/2 cups peeled, julienned jicama, * 1 cup, peeled, julienned carrots, * 1 cup shredded napa cabbage, * 1/2 cup thinly sliced red onion, * 1 cup julienned english cucumber, * 1/2 cup julienned red bell pepper, * 1 tablespoon cilantro, chopped]'
p34
sbag2
(g3
g4
NtRp35
(dp36
g7
S'http://www.foodnetwork.com/recipes/paula-deen/southern-cornbread-salad-recipe.html'
p37
sg9
S'[* 1 batch cornbread, cut into 1-inch cubes, recipe follows, * 1 (14.5-ounce) can red kidney beans, rinsed and drained, * 1 (15-ounce) can niblet corn, drained, * 1 medium vidalia onion, finely chopped, * 1 large green bell pepper, finely chopped, * 3 large tomatoes, chopped, * 2 cups grated sharp cheddar, * 1 (8-ounce) bottle ranch dressing, * chopped fresh parsley leaves, for garnish, * 1/2 cup vegetable oil, plus 1/4 cup for greasing pan, * 1 cup self-rising cornmeal, * 3/4 cup self-rising flour, * 1 cup cream-style corn, * 2 eggs, * 1 cup sour cream, * 1 cup grated sharp cheddar, optional, * 1/2 teaspoon cayenne pepper, optional]'
p38
sbag2
(g3
g4
NtRp39
(dp40
g7
S'http://www.foodnetwork.com/recipes/emeril-lagasse/rock-shrimp-quesadillas-with-cantaloupe-berry-and-peach-salsa-recipe.html'
p41
sg9
S'[* 2 cups small diced cantaloupe, * 1 pint fresh blackberries, washed and hulled, * 2 cups small diced peaches, * 1 cup small diced red onions, * 1 large fresh jalapeno, seeded and cut into small dice, * 1/4 cup loosely packed chopped fresh cilantro leaves, * salt, * freshly ground black pepper, * 6 tablespoons fresh lime juice, * 1 tablespoon extra-virgin olive oil, * 2 tablespoons olive oil, * 1 cup chopped yellow onions, * salt, * freshly ground black pepper, * 1 teaspoon chopped garlic, * 1 pound rock shrimp, * 1 medium avocado, peeled and small diced, * 1/2 cup scallions, sliced thinly on a bias, * 4 ounces monterey jack, grated, * 4 ounces sharp cheddar, grated, * 12 large flour tortillas, * 1/2 cup vegetable oil, * 1 cup sour cream, * 1 tablespoon finely chopped fresh parsley leaves]'
p42
sbag2
(g3
g4
NtRp43
(dp44
g7
S'http://www.foodnetwork.com/recipes/jicama-salad-recipe0.html'
p45
sg9
S'[* 1 large jicama, julienned, * 2 large carrots, julienne, * 1 cup red onion, finely sliced, * 1/2 red pepper, julienned, * 1/2 yellow pepper, julienned, * 1 tomato, julienned, * 1/4 cup fresh lime juice, * 1/4 cup red wine vinegar, * 1 teaspoon honey, * 2 tablespoons olive oil, * pinch of cayenne, * salt and freshly ground pepper, * 2 tablespoons chopped cilantro]'
p46
sbag2
(g3
g4
NtRp47
(dp48
g7
S'http://www.foodnetwork.com/recipes/chicken-paillard-with-tri-olive-tapanade-roast-sage-yams-and-sauteed-garlic-spinach-recipe.html'
p49
sg9
S'[* 1/4 cup kalamata olives, pitted and rough chopped, * 1/4 cup lucques olives, pitted and roughly chopped, * 1/4 cup nicoise olives, pitted and roughly chopped, * 2 teaspoons chopped capers, * 1 small anchovy, finely chopped, * 1 teaspoon lemon zest, * 2 teaspoons fresh lemon juice, * 4 tablespoons finely chopped garlic, * 11 tablespoons olive oil, * salt and freshly ground black pepper, * 1 large sweet yam, orange flesh preferred, peeled and small diced, * 3 tablespoons unsalted butter, melted, * 1 tablespoon brown sugar, * 2 medium sage leaves, finely chopped, * 4 chicken breasts, skin removed, * 3 cups packed baby spinach, triple washed and dried]'
p50
sbag2
(g3
g4
NtRp51
(dp52
g7
S'http://www.foodnetwork.com/recipes/lima-bean-soup-with-parmesan-bacon-crisp-recipe.html'
p53
sg9
S'[* 2/3 cup diced onion, * 3 tablespoons butter, * 1 tablespoon olive oil, * 1/3 cup diced carrot, * 1/3 cup diced celery, * 3 cups lima beans, thawed, * 1 apple peeled, cored, pitted and sliced, * 4 cups chicken broth, * salt and freshly ground black pepper, * 1/2 cup grated parmesan, * 1/4 cup fully cooked crumbled bacon, * sour cream, for plating, optional]'
p54
sbag2
(g3
g4
NtRp55
(dp56
g7
S'http://www.foodnetwork.com/recipes/ina-garten/broccoli-with-garlic-and-soy-sauce-recipe3.html'
p57
sg9
S'[* 1 head garlic, peeled (about 16 cloves), * 1 cup good olive oil, * 1 teaspoon crushed red pepper flakes, * 1 teaspoon kosher salt, * 4 stalks broccoli, cut into florets (8 cups of florets), * 2 tablespoons soy sauce]'
p58
sbag2
(g3
g4
NtRp59
(dp60
g7
S'http://www.foodnetwork.com/recipes/cantaloupe-salad-recipe.html'
p61
sg9
S'[* 2 cups diced cantaloupe, * 1 cup crumbled feta cheese, * 1 handful mint leaves, chopped, plus sprigs, for garnish, * 8 ounces diced prosciutto, * 2 tablespoons olive oil, * 1/2 teaspoon granulated sugar, * 1/4 teaspoon kosher salt]'
p62
sbag2
(g3
g4
NtRp63
(dp64
g7
S'http://www.foodnetwork.com/recipes/food-network-kitchens/gazpacho-with-lime-chicken-recipe.html'
p65
sg9
S'[* 1 large shallot, minced, * juice of 2 limes, plus wedges for serving, * 1/3 cup extra-virgin olive oil, plus more for drizzling, * kosher salt and freshly ground pepper, * 1 1/4 pounds chicken cutlets, * 1/2 cup large-cut croutons, * 3 large tomatoes, diced, * 1 small cucumber, peeled, seeded and diced, * 1 bell pepper (any color), stemmed, seeded and diced, * 1/4 cup roughly chopped fresh cilantro]'
p66
sbag2
(g3
g4
NtRp67
(dp68
g7
S'http://www.foodnetwork.com/recipes/rachael-ray/cuban-spiced-pork-tenderloin-and-soffrito-rice-recipe.html'
p69
sg9
S'[* 1 tablespoon olive oil or vegetable oil, * 2 slices bacon, chopped, * 1 small white onion, chopped, * 1 small green bell pepper, chopped, * 2 3/4 cups chicken broth, * 1 1/2 cups white rice, * 2 pinches saffron or 1/2 teaspoon turmeric, * salt, * 2 pork tenderloins, trimmed, about 2 1/2 pounds total weight, * 4 cloves garlic, cracked away from skin, * 4 bay leaves, * 2 teaspoons anise seed, * 2 teaspoons ground coriander, * 1 tablespoon ground cumin, * 2 limes, zested, * 2 tablespoons grill seasoning blend (recommended: mccormick montreal steak seasoning) or coarse salt and pepper, * evoo - extra-virgin olive oil, or vegetable oil, to coat, * optional garnishes: chopped mango or kiwi, or chopped cilantro and scallions]'
p70
sbag2
(g3
g4
NtRp71
(dp72
g7
S'http://www.foodnetwork.com/recipes/food-network-kitchens/kiwi-watermelon-lime-juice.html'
p73
sg9
S'[* 2 kiwis, peeled, * 1 1/4 cups chopped watermelon, * 2 large, juicy limes, peel and pith removed, * 1 tablespoon chia seeds, optional]'
p74
sbag2
(g3
g4
NtRp75
(dp76
g7
S'http://www.foodnetwork.com/recipes/kiwi-and-mango-tartlets-recipe.html'
p77
sg9
S"[* 1 1/2 cups nonfat lemon flavored yogurt, * 1/4 cup canola oil, * 1/4 cup sugar, * 1 egg, * 3/4 cup whole-grain pastry flour, * 1/2 cup all-purpose flour, * 1 mango, finely diced, * 3 kiwi fruits, peeled, quartered and sliced, * 24 small mint leaves, * 2 teaspoons confectioners' sugar]"
p78
sbag2
(g3
g4
NtRp79
(dp80
g7
S'http://www.foodnetwork.com/recipes/giada-de-laurentiis/salami-bacon-and-spinach-hash-recipe.html'
p81
sg9
S'[* 8 ounces apple-smoked bacon (5 to 6 slices), cut into 1/2-inch pieces, * 2 medium russet potatoes (about 1 1/2 pounds), peeled and chopped into 1-inch cubes, * 1 1/2 teaspoons kosher salt, * 3/4 teaspoon freshly ground black pepper, * 2 tablespoons extra-virgin olive oil, * 1 medium onion, chopped, * 1 red bell pepper, cored, seeded and cut into 1/2-inch pieces, * 3 cups baby spinach leaves, * 5 ounces dry salami, peeled and cut into 1/2-inch cubes, * 1/2 teaspoon ground nutmeg, * zest of 1/2 medium orange, * 4 large eggs, at room temperature]'
p82
sbag2
(g3
g4
NtRp83
(dp84
g7
S'http://www.foodnetwork.com/recipes/ellie-krieger/radiance-fruit-salad-recipe.html'
p85
sg9
S'[* 1/3 cantaloupe, cut into 3/4-inch chunks (about 2 cups), * 1 (16 ounce) container strawberries, quartered (about 3 cups), * 5 medium kiwis, peeled and cut into 3/4-inch chunks (about 2 1/2 cups), * 3 tablespoons honey, * 3 tablespoons fresh lime juice, * 1 teaspoon lime zest, * 3 tablespoons finely chopped fresh mint leaves]'
p86
sbag2
(g3
g4
NtRp87
(dp88
g7
S'http://www.foodnetwork.com/recipes/sunny-anderson/smoked-gouda-chorizo-jalapeno-poppers-recipe.html'
p89
sg9
S"[* 2 links mexican chorizo, casings removed, * 1/2 pound smoked gouda, shredded, * 1/4 cup finely chopped red onions, * 1 egg, * 1/2 cup cream cheese, * 3 tablespoons sour cream, * 1 tablespoon hot sauce (recommended: frank's red hot), * salt and freshly ground black pepper, * 12 large jalapeno peppers, stemmed, seeded and halved]"
p90
sbag2
(g3
g4
NtRp91
(dp92
g7
S'http://www.foodnetwork.com/recipes/jalapeno-poppers-three-ways-recipe.html'
p93
sg9
S'[* 24 jalapeno peppers, * 3 large eggs, * 1/2 cup salsa, * 1/2 cup grated jack cheese, * kosher salt, * freshly ground black pepper, * 4 tortilla chips, crushed, * 1 cup pizza sauce, * 1 italian sausage, cooked and crumbled, * 1/2 cup grated mozzarella, * 1 cup chunky peanut butter, * 1/4 cup of your favorite jelly]'
p94
sbag2
(g3
g4
NtRp95
(dp96
g7
S'http://www.foodnetwork.com/recipes/melissa-darabian/sweet-potato-beet-hash-recipe.html'
p97
sg9
S'[* 1 large sweet potato, peeled and cut into 1/4-inch dice, * 1 large fresh beet, peeled and cut into 1/4-inch dice, * 1 tablespoon olive oil, * kosher salt and freshly ground pepper, * 1 slice bacon, cut into lardons, * 1 small onion, diced]'
p98
sbag2
(g3
g4
NtRp99
(dp100
g7
S'http://www.foodnetwork.com/recipes/food-network-kitchens/roasted-beets-with-lemon-recipe.html'
p101
sg9
S'[]'
p102
sbag2
(g3
g4
NtRp103
(dp104
g7
S'http://www.foodnetwork.com/recipes/anne-burrell/roasted-beet-salad-with-pears-and-marcona-almonds-recipe.html'
p105
sg9
S'[* 4 large red beets, * 2 anjou pears, * 3 to 4 tablespoons balsamic vinegar, * extra-virgin olive oil, * kosher salt, * 2 cups baby washed arugula, * 1/4 cup marcona almonds, coarsely chopped, * 1 bunch chives, finely chopped]'
p106
sbag2
(g3
g4
NtRp107
(dp108
g7
S'http://www.foodnetwork.com/recipes/giada-de-laurentiis/beet-and-goat-cheese-arugula-salad-recipe.html'
p109
sg9
S'[* 1/4 cup balsamic vinegar, * 3 tablespoons shallots, thinly sliced, * 1 tablespoon honey, * 1/3 cup extra-virgin olive oil, * salt and freshly ground black pepper, * 6 medium beets, cooked and quartered, * 6 cups fresh arugula, * 1/2 cup walnuts, toasted, coarsely chopped, * 1/4 cup dried cranberries or dried cherries, * 1/2 avocado, peeled, pitted, and cubed, * 3 ounces soft fresh goat cheese, coarsely crumbled]'
p110
sbag2
(g3
g4
NtRp111
(dp112
g7
S'http://www.foodnetwork.com/recipes/ina-garten/date-nut-spice-bread-recipe.html'
p113
sg9
S'[* 2 cups coarsely chopped dates (10 ounces pitted), * 1/3 cup orange liqueur (recommended: cointreau or triple sec), * 4 tablespoons (1/2 stick) unsalted butter, at room temperature, * 3/4 cup light brown sugar, lightly packed, * 1 extra-large egg, * 1 teaspoon pure vanilla extract, * 1 tablespoon grated orange zest (2 oranges), * 2 cups all-purpose flour, * 2 teaspoons baking powder, * 1/2 teaspoon baking soda, * 1 teaspoon ground cinnamon, * 1 teaspoon ground nutmeg, * 1/4 teaspoon ground cloves, * 1 teaspoon kosher salt, * 3/4 cup freshly squeezed orange juice (3 oranges), * 3/4 cup coarsely chopped pecans (3 ounces), * 6 ounces cream cheese, at room temperature, * 1/3 cup granulated sugar, * 1 tablespoon grated orange zest]'
p114
sbag2
(g3
g4
NtRp115
(dp116
g7
S'http://www.foodnetwork.com/recipes/giada-de-laurentiis/beet-and-marinated-goat-cheese-salad-recipe.html'
p117
sg9
S'[* 1/2 cup extra-virgin olive oil, * 1/3 cup white balsamic vinegar, * 1 tablespoon frozen apple juice concentrate, thawed, * 1 1/2 teaspoons minced fresh thyme, * 1/4 teaspoon freshly ground black pepper, plus extra for seasoning, * 1/4 teaspoon kosher salt, plus extra for seasoning, * 2 cloves garlic, minced, * 4 ounces goat cheese, chilled, broken into 1/2-inch chunks, * four 2-inch-diameter red or golden beets, tops trimmed, * 6 ounces green beans, trimmed, cut into 2-inch lengths, * 1 teaspoon extra-virgin olive oil, * kosher salt and freshly ground black pepper, * 6 cups bite-size pieces butter lettuce (part of 1 head), * 2 packed cups baby arugula, * 1/2 large granny smith apple, cored, cut into thin slices]'
p118
sbag2
(g3
g4
NtRp119
(dp120
g7
S'http://www.foodnetwork.com/recipes/stilton-stuffed-dates-recipe.html'
p121
sg9
S'[* 12 medjool dates, * 2 ounces stilton cheese, crumbled, * 6 pieces thick-cut smoked bacon]'
p122
sbag2
(g3
g4
NtRp123
(dp124
g7
S'http://www.foodnetwork.com/recipes/giada-de-laurentiis/apple-and-mint-punch-recipe.html'
p125
sg9
S"[* 2 cups water, * 4 green tea bags, * 1 1/2 cups (100 percent) apple juice (recommended: martinelli's), * 1 cup mint simple syrup, recipe follows, * 1/4 cup fresh lemon juice (from 1 large lemon), * 1 cup sparkling water, chilled, * ice, * 1 cup water, * 1/2 cup sugar, * 1 packed cup fresh mint leaves]"
p126
sbag2
(g3
g4
NtRp127
(dp128
g7
S'http://www.foodnetwork.com/recipes/food-network-kitchens/strawberry-green-tea-smoothie.html'
p129
sg9
S'[* 1 green tea bag, * 3/4 cup very hot water, * 1 cup fresh strawberries, halved, plus 1 sliced strawberry for garnish, * 1/4 cup lowfat milk, * 1/2 lime, juiced, * 1 tablespoon honey, * 6 fresh mint leaves]'
p130
sbag2
(g3
g4
NtRp131
(dp132
g7
S'http://www.foodnetwork.com/recipes/food-network-kitchens/roasted-beets-with-feta-recipe.html'
p133
sg9
S'[]'
p134
sbag2
(g3
g4
NtRp135
(dp136
g7
S'http://www.foodnetwork.com/recipes/sticky-toffee-date-cake-recipe.html'
p137
sg9
S'[* 1 pound dates, pitted and chopped, * 2 teaspoons baking soda, * 8 ounces butter, softened, * 3/4 cup granulated sugar, * 4 eggs, * 1 teaspoon vanilla extract, * 2 1/2 cups all purpose flour, * 1 teaspoon salt, * 3 1/4 tablespoons baking powder, * 1/2 pound butter, * 1 cup brown sugar (8 ounces), * 1/2 cup heavy cream, * 1 teaspoon vanilla extract, * vanilla ice cream or whipped cream, for serving]'
p138
sbag2
(g3
g4
NtRp139
(dp140
g7
S'http://www.foodnetwork.com/recipes/dave-lieberman/mint-iced-tea-recipe.html'
p141
sg9
S'[* 3 green tea bags, * 1 quart boiling water, * 1/4 cup sugar, * 1/2 large lemon, sliced into 1/4-inch slices, * 1 bunch fresh mint, washed, * 2 cups cold water]'
p142
sbag2
(g3
g4
NtRp143
(dp144
g7
S'http://www.foodnetwork.com/recipes/sandra-lee/iced-ginger-green-tea-recipe.html'
p145
sg9
S'[* 3 green tea bags, * 1/2 cup sugar, * 1 -inch piece ginger, sliced, plus more for garnish, * 1 bottle prosecco (optional)]'
p146
sbag2
(g3
g4
NtRp147
(dp148
g7
S'http://www.foodnetwork.com/recipes/dave-lieberman/ricotta-stuffed-bacon-wrapped-dates-recipe.html'
p149
sg9
S'[* 1 pound (about 12 to 13 slices) bacon, preferably thick-cut, * 25 medjool dates (about 3/4 pound), * 1/3 cup ricotta cheese, * special equipment: toothpicks, a bamboo skewer for removing pits]'
p150
sbag2
(g3
g4
NtRp151
(dp152
g7
S'http://www.foodnetwork.com/recipes/giada-de-laurentiis/walnut-and-blue-cheese-grapes-recipe.html'
p153
sg9
S"[* 1/4 cup (2 ounces) cream cheese, at room temperature, * 1/4 cup (2 ounces) blue cheese, at room temperature, * 1/4 cup heavy cream, * 18 to 20 seedless red grapes, chilled, * 1 cup (4 ounces) finely chopped walnuts, toasted (see cook's note), * 2 tablespoons sugar, * 2 tablespoons chopped fresh flat-leaf parsley]"
p154
sbag2
(g3
g4
NtRp155
(dp156
g7
S'http://www.foodnetwork.com/recipes/sunny-anderson/radish-salad-recipe.html'
p157
sg9
S'[* 2 tablespoons apple cider, * 2 tablespoons orange juice, * 2 tablespoons fresh lime juice, * 2 tablespoons olive oil, * 1 teaspoon sugar, * kosher salt and freshly ground black pepper, * 12 ounces radishes, trimmed and each cut into wedges, * 1/4 cup fresh cilantro leaves, * 1/4 cup finely chopped red onion]'
p158
sbag2
(g3
g4
NtRp159
(dp160
g7
S'http://www.foodnetwork.com/recipes/giada-de-laurentiis/cheese-stuffed-dates-with-prosciutto-recipe.html'
p161
sg9
S'[* 1/4 cup (2 ounces) goat cheese, at room temperature, * 1/4 cup (2 ounces) mascarpone cheese, a room temperature, * 1/4 cup finely chopped fresh basil leaves, * kosher salt and freshly ground black pepper, * 16 medjool dates (12 ounces), pitted, * 8 thin slices prosciutto, halved lengthwise]'
p162
sbag2
(g3
g4
NtRp163
(dp164
g7
S'http://www.foodnetwork.com/recipes/food-network-kitchens/roast-chicken-with-grapes-recipe.html'
p165
sg9
S'[* 1 10 -ounce box couscous (about 1 1/4 cups), * 1/4 cup extra-virgin olive oil, * kosher salt and freshly ground pepper, * 1 4 -pound chicken, cut into 12 pieces, * 1 medium red onion, cut into wedges, * 2 teaspoons herbes de provence or italian seasoning, * 2 cups red or green seedless grapes, halved]'
p166
sbag2
(g3
g4
NtRp167
(dp168
g7
S'http://www.foodnetwork.com/recipes/roasted-sausages-and-grapes-recipe.html'
p169
sg9
S'[* 1 1/2 pounds italian hot sausage, * 1 1/2 pounds italian sweet sausage, * 3 tablespoons unsalted butter, * 5 to 6 cups (2 pounds) red or green seedless grapes, stems removed, * 2 to 4 tablespoons dry red wine, preferably chianti, * 3 tablespoons balsamic vinegar, * fresh foccaccia or ciabatta bread, to serve]'
p170
sbag2
(g3
g4
NtRp171
(dp172
g7
S'http://www.foodnetwork.com/recipes/food-network-kitchens/sweet-roasted-grapes-recipe.html'
p173
sg9
S'[]'
p174
sbag2
(g3
g4
NtRp175
(dp176
g7
S'http://www.foodnetwork.com/recipes/giada-de-laurentiis/salami-and-gorgonzola-biscuits-recipe.html'
p177
sg9
S'[* 2 cups all-purpose flour, plus extra for dusting, * 1 tablespoon baking powder, * 1 teaspoon baking soda, * 1 teaspoon kosher salt, * 6 tablespoons cold butter, cut into small pieces, * 3/4 cup buttermilk, * 1/4 cup finely diced salami, * 2 tablespoons crumbled gorgonzola, * special equipment: 1-inch diameter cookie cutter]'
p178
sbag2
(g3
g4
NtRp179
(dp180
g7
S'http://www.foodnetwork.com/recipes/food-network-kitchens/eggs-in-purgatory-with-salami-recipe.html'
p181
sg9
S'[* 2 tablespoons extra-virgin olive oil, * 2 cloves garlic, smashed, * 4 ounces deli-sliced salami, roughly chopped, * 1 medium onion, halved and thinly sliced, * 1 italian green frying pepper, thinly sliced, * 1 small yellow bell pepper, thinly sliced, * 1/2 teaspoon red pepper flakes, * 1 cup tomato puree or marinara sauce, * 1/4 cup fresh parsley leaves, * 8 large eggs, * 2 tablespoons grated pecorino romano or parmesan cheese, * crusty bread, for serving]'
p182
sbag2
(g3
g4
NtRp183
(dp184
g7
S'http://www.foodnetwork.com/recipes/anne-burrell/sweet-potato-casserole-recipe.html'
p185
sg9
S'[* 2 1/2 pounds sweet potatoes (about 3), * 1 orange, zested and juiced, * 1 teaspoon ground cinnamon, * 1 tablespoon honey, * 1/2 cup milk, * 1/2 cup diced dried apricots, * 1/2 cup oatmeal, * 1/4 cup firmly packed brown sugar, * 2 tablespoons extra-virgin olive oil, * 2 tablespoons butter, cut into pea-sized pieces, * 1/2 cup chopped walnuts]'
p186
sbag2
(g3
g4
NtRp187
(dp188
g7
S'http://www.foodnetwork.com/recipes/food-network-kitchens/nectarine-upside-down-cake-with-salted-caramel.html'
p189
sg9
S'[* cooking spray, * 1 3/4 cups sugar, * 1 teaspoon fine salt, * 4 nectarines, cut into 1/2-inch wedges (about 1 1/4 pounds), * 1 3/4 cups all-purpose flour, * 1 teaspoon baking powder 1/2 teaspoon baking soda, * 1 stick unsalted butter, at room temperature, * 2 large eggs, * 1 teaspoon pure vanilla extract, * 1 cup buttermilk, * coarse sea salt, for sprinkling]'
p190
sbag2
(g3
g4
NtRp191
(dp192
g7
S'http://www.foodnetwork.com/recipes/food-network-kitchens/blueberry-and-nectarine-cobbler-recipe.html'
p193
sg9
S'[* 6 ripe nectarines, about 1 pound, * 2 cups fresh blueberries, * 1 cup sugar, * 1 tablespoon instant tapioca, * 2 tablespoons unsalted butter, diced into small pieces, plus more for the pan, * 1 1/2 cups all-purpose flour, * 1/3 cup sugar, * 2 1/4 teaspoons baking powder, * 1/2 teaspoon fine salt, * 6 tablespoons cold unsalted butter, diced into small pieces, * 1 large egg, * 1/2 cup heavy cream, * serving suggestions: vanilla ice cream or whipped cream]'
p194
sbag2
(g3
g4
NtRp195
(dp196
g7
S'http://www.foodnetwork.com/recipes/food-network-kitchens/spicy-quinoa-with-sweet-potatoes.html'
p197
sg9
S'[* 1 3/4 cups quinoa, * 3 cups low-sodium chicken broth, * kosher salt, * 3 tablespoons vegetable oil, * 1/2 red onion, thinly sliced, * 2 cloves garlic, finely chopped, * 1 tablespoon ancho chile powder, * 1 teaspoon ground coriander, * 1/2 teaspoon ground cumin, * 1 small red jalapeno pepper, seeded and thinly sliced, * 2 small sweet potatoes, peeled and cut into 1/2-inch pieces, * 1/3 cup roughly chopped fresh cilantro, * 1 to 2 tablespoons fresh lime juice]'
p198
sbag2
(g3
g4
NtRp199
(dp200
g7
S'http://www.foodnetwork.com/recipes/rachael-ray/thai-cucumber-and-radish-salad-recipe.html'
p201
sg9
S'[* 1/2 cup rice wine vinegar, * 3 tablespoons sugar, * 2 tablespoons light oil, such as canola or safflower, * 1 pound daikon radish, peeled and thinly sliced, * 1 english or seedless cucumber, thinly sliced, * 1 red bell pepper, seeded and very thinly sliced, * 1 teaspoon crushed red pepper flakes, * 20 fresh basil leaves]'
p202
sbag2
(g3
g4
NtRp203
(dp204
g7
S'http://www.foodnetwork.com/recipes/food-network-kitchens/nectarine-tomato-salad-recipe.html'
p205
sg9
S'[]'
p206
sbag2
(g3
g4
NtRp207
(dp208
g7
S'http://www.foodnetwork.com/recipes/food-network-kitchens/spiced-rice-with-nectarines-recipe.html'
p209
sg9
S'[]'
p210
sbag2
(g3
g4
NtRp211
(dp212
g7
S'http://www.foodnetwork.com/recipes/emeril-lagasse/brandied-duck-liver-mousse-with-creole-mustard-sauce-recipe.html'
p213
sg9
S'[* 1 1/2 pounds duck livers, cleaned and rinsed in cool water, patted dry, * 1 cup whole milk, * 4 teaspoons vegetable oil, * 1 cup chopped yellow onions, * 1 1/2 teaspoons dried thyme, * 4 bay leaves, * 1 1/2 teaspoons salt, * 1/2 teaspoon freshly ground white pepper, * 1/4 cup brandy, * 12 ounces cream cheese, softened, * 3 sticks unsalted butter, softened, * creole mustard sauce, recipe follows, * french bread croutons, or crackers, as an accompaniment, * 1 large egg yolk*, * 1 1/2 teaspoons soy sauce, * 1 1/2 teaspoons creole mustard, or other hot, whole-grain mustard, * 1 1/2 teaspoons worcestershire sauce, * 1/8 teaspoon salt, * 1/4 teaspoon freshly ground black pepper, * 3/4 cup vegetable oil]'
p214
sbag2
(g3
g4
NtRp215
(dp216
g7
S'http://www.foodnetwork.com/recipes/marcela-valladolid/grilled-stuffed-jalapeno-chiles-recipe.html'
p217
sg9
S'[* 8 fresh whole jalapenos, * 1 cup shredded mozzarella, * 1 teaspoon chopped fresh oregano, * salt and freshly ground black pepper, * 8 slices center-cut smoked bacon]'
p218
sbag2
(g3
g4
NtRp219
(dp220
g7
S'http://www.foodnetwork.com/recipes/giada-de-laurentiis/watermelon-and-cantaloupe-salad-with-mint-vinaigrette-recipe.html'
p221
sg9
S'[* 1 bunch fresh mint, chopped, * 1/4 cup lemon juice, from about 1 lemon, * 1/4 cup simple syrup, recipe follows, * 1/8 teaspoon amaretto, * 2 cups watermelon balls, from about half a watermelon, * 2 cups cantaloupe balls, from about 1 cantaloupe, * 1/2 cup water, * 1 cup sugar]'
p222
sbag2
(g3
g4
NtRp223
(dp224
g7
S'http://www.foodnetwork.com/recipes/giada-de-laurentiis/watermelon-and-cantaloupe-salad-with-mint-and-basil-vinaigrette-recipe.html'
p225
sg9
S'[* 1/2 watermelon, * 1 cantaloupe, cut in half, seeded, * 2 tablespoons freshly chopped mint leaves plus whole sprigs, for garnish, * 2 tablespoons freshly chopped basil leaves plus whole sprigs, for garnish, * 1 lemon juiced (1/4 cup), * 1/4 cup simple syrup (equal amounts sugar and water heated until sugar dissolves, cool), * 1/8 teaspoon amaretto]'
p226
sbag2
(g3
g4
NtRp227
(dp228
g7
S'http://www.foodnetwork.com/recipes/robin-miller/wilted-bok-choy-with-soy-sauce-and-cashews-recipe.html'
p229
sg9
S'[* 1 tablespoon sesame oil, * 1 bunch bok choy, sliced crosswise into 1/2-inch thick slices, * 1 tablespoon reduced-sodium soy sauce, * 1 teaspoon crushed red pepper flakes, * salt and ground black pepper, * 1/2 cup cashews]'
p230
sbag2
(g3
g4
NtRp231
(dp232
g7
S'http://www.foodnetwork.com/recipes/jamie-oliver/stir-fried-chinese-greens-with-ginger-oyster-and-soy-sauce-recipe.html'
p233
sg9
S'[* 11 -14 ounces mixed chinese greens -- bok choy, chinese broccoli (gai larn), baby spinach, * 3 tablespoons walnut oil, * 1 tablespoon sesame oil, * 1/2 tablespoon thinly sliced ginger, * 4 scallions, finely shredded, * 2 tablespoons oyster sauce, * 1 tablespoon soy sauce, * 2 pinches of sugar, * juice of 1 lime, * salt and freshly ground black pepper]'
p234
sbag2
(g3
g4
NtRp235
(dp236
g7
S'http://www.foodnetwork.com/recipes/grilled-shrimp-scampi-style-with-soy-sauce-fresh-ginger-and-garlic-recipe.html'
p237
sg9
S'[* 1/4 cup plus 1 teaspoon soy sauce, * 2 tablespoons plus 2 teaspoons toasted sesame oil, * 2 limes, juiced, * 2 teaspoons honey, * 2 (2-inch) piece fresh ginger, finely grated, * 4 cloves garlic, finely chopped, * 1/2 cup canola oil, divided, * 1 1/4 pounds large (21-24) shrimp, peeled and deveined, * 1 stick butter, softened]'
p238
sbag2
(g3
g4
NtRp239
(dp240
g7
S'http://www.foodnetwork.com/recipes/jamie-oliver/beef-with-soy-sauce-and-ginger-recipe.html'
p241
sg9
S'[* 2 (8 ounce/ 225 gram) sirloin steaks, * sea salt and freshly ground black pepper, * 2 pak choy or bok choy (even spinach or any other greens will do), * 8 tablespoons soy sauce, * 1 thumb-sized piece of ginger, peeled, * 1 chilli, deseeded and finely chopped, * 1/2 a garlic clove, finely grated, * 1 lime, juiced, * olive oil]'
p242
sbag2
(g3
g4
NtRp243
(dp244
g7
S'http://www.foodnetwork.com/recipes/rachael-ray/heck-of-a-jicama-salad-recipe.html'
p245
sg9
S'[* 1 medium jicama root, peeled and sliced into thick matchsticks, * 1 teaspoon salt, * 2 teaspoons sugar, * 2 limes, juiced, * 2 hearts romaine, chopped, * 2 tablespoons chopped cilantro leaves, a handful of leaves, finely chopped, * 1/2 teaspoon ground cumin, eyeball it in the palm of your hand, * 3 tablespoons extra-virgin olive oil, eyeball it, * freshly ground black pepper]'
p246
sbag2
(g3
g4
NtRp247
(dp248
g7
S'http://www.foodnetwork.com/recipes/food-network-kitchens/jicama-orange-salad-recipe.html'
p249
sg9
S'[* 4 oranges, * 1/4 teaspoon ancho chili powder, * kosher salt and freshly ground pepper, * 3 tablespoons extra-virgin olive oil, * juice of 1 lime, * 1 medium jicama, peeled and diced, * 3 scallions, chopped, * 2 tablespoons fresh cilantro, * seeds of 1/2 pomegranate]'
p250
sbag2
(g3
g4
NtRp251
(dp252
g7
S'http://www.foodnetwork.com/recipes/anne-burrell/garnet-yam-bacon-and-apple-hash-recipe.html'
p253
sg9
S'[* 2 garnet yams, peeled and cut into 1/2-inch dice, * extra-virgin olive oil, * kosher salt, * 4 to 6 slices thick cut bacon, cut into lardons, * 1 large onion, cut into 1/2-inch dice, * 2 granny smith apples, cored and cut into 1/2-inch dice, * 4 scallions, white and green parts separated, thinly sliced, * 1/2 cup green pumpkin seeds ( pepitas), toasted]'
p254
sbag2
(g3
g4
NtRp255
(dp256
g7
S'http://www.foodnetwork.com/recipes/rachael-ray/cucumber-and-tomato-salad-recipe.html'
p257
sg9
S'[* 1/2 english or seedless cucumber, diced, * 2 vine ripe tomatoes, diced, * handful flat-leaf parsley, chopped, * 1/2 medium red onion, chopped, * 2 tablespoons red wine vinegar, a couple of splashes, * 3 tablespoons extra-virgin olive oil, eyeball it, * salt and pepper]'
p258
sbag2
(g3
g4
NtRp259
(dp260
g7
S'http://www.foodnetwork.com/recipes/emeril-lagasse/vietnamese-summer-rolls-with-hot-mustard-sauce-recipe.html'
p261
sg9
S'[* 2 (1-ounce) skeins mung bean noodles or cellophane noodles, * 8 (8 1/2-inch) round rice paper wrappers, * 8 small romaine lettuce leaves, rinsed, patted dry, ribs removed, and torn into bite-size pieces, * 1 -ounce alfalfa or radish sprouts, * 32 cooked medium shrimp halves, * 32 fresh mint leaves, * 32 sprigs fresh cilantro, * 1 large carrot, peeled and shredded, * hot mustard sauce, recipe follows, * 1/3 cup dry chinese hot mustard, * 1/4 cup water, * 3 tablespoons rice vinegar, * pinch salt]'
p262
sbag2
(g3
g4
NtRp263
(dp264
g7
S'http://www.foodnetwork.com/recipes/veggie-sandwich-with-pesto-recipe.html'
p265
sg9
S'[* 1 small eggplant, thinly sliced, * 2 zucchini, thinly sliced, * 2 tbsps olive oil, * 4 rolls ( hamburger buns, kaiser or french), * 3 cup homemade or prepared pesto, * 2 tomatoes, sliced, * 1 avocado, sliced, * 1 box alfalfa sprouts, * salt and pepper]'
p266
sbag2
(g3
g4
NtRp267
(dp268
g7
S'http://www.foodnetwork.com/recipes/giada-de-laurentiis/israeli-couscous-salad-with-smoked-paprika-recipe.html'
p269
sg9
S'[* 1/3 cup extra-virgin olive oil, * 2 tablespoons white balsamic vinegar, * 1 1/2 teaspoons smoked paprika, * 1 teaspoon kosher salt, * 1/2 teaspoon freshly ground black pepper, * 1 tablespoon extra-virgin olive oil, * 1 1/3 cups (8 ounces) israeli couscous, sometimes called pearl couscous or maftoul, * 1/2 teaspoon kosher salt, * 2 cups packed baby spinach leaves, coarsely chopped, * 12 ounces grape tomatoes, cherry tomatoes, or baby heirloom tomatoes of assorted colors, halved (about 2 cups), * 4 ounces (about 1 cup) feta, coarsely crumbled or chopped into 1/2-inch pieces, * 1 cup jarred red bell peppers, drained and coarsely chopped, * 1/2 cup chopped fresh flat-leaf parsley, * 1/3 cup slivered almonds, toasted, * 1/4 cup chopped fresh mint, * kosher salt and freshly ground black pepper]'
p270
sbag2
(g3
g4
NtRp271
(dp272
g7
S'http://www.foodnetwork.com/recipes/patrick-and-gina-neely/black-eyed-peas-with-bacon-and-pork-recipe.html'
p273
sg9
S'[* 1 pound dried black-eyed peas (fresh or canned black-eyed peas can be substituted), * 2 tablespoons vegetable oil, * 6 ounces pork shoulder, diced into 1/2-inch cubes, * 4 strips thick sliced bacon, cut into 1/2-inch pieces, * 1 medium onion, small diced, * 4 garlic cloves, sliced, * 1 1/2 teaspoons salt, * 1 teaspoon freshly cracked black pepper, * 1/2 teaspoon cayenne pepper, * 1 teaspoon garlic powder, * 4 cups chicken stock, * 2 cups water, * 3 bay leaves, * hot-pepper vinegar, as desired]'
p274
sbag2
(g3
g4
NtRp275
(dp276
g7
S'http://www.foodnetwork.com/recipes/food-network-kitchens/lima-bean-dip-recipe.html'
p277
sg9
S'[* 1 10 -ounce box frozen lima beans, * 2 cloves garlic, * 1/4 cup loosely packed fresh parsley, * grated zest and juice of 1/2 lemon, * 1/4 cup extra-virgin olive oil, * 2 slices bacon, cooked and crumbled, * pita chips and/or vegetable sticks, for serving]'
p278
sbag2
(g3
g4
NtRp279
(dp280
g7
S'http://www.foodnetwork.com/recipes/giada-de-laurentiis/israeli-couscous-with-apples-cranberries-and-herbs-recipe.html'
p281
sg9
S"[* 2 tablespoons olive oil, * 2 cups israeli couscous (or barley or orzo), * 4 cups low-sodium chicken broth, * 1/4 cup chopped fresh flat-leaf parsley, * 1 1/2 tablespoons chopped fresh rosemary leaves, * 1 teaspoon chopped fresh thyme leaves, * 1 medium green apple, diced, * 1 cup dried cranberries, * 1/2 cup slivered almonds, toasted, see cook's note, * 1/4 cup apple cider vinegar, * 3 tablespoons maple syrup, * 1/2 teaspoon kosher salt, * 1/2 teaspoon freshly ground black pepper, * 1/4 cup olive oil]"
p282
sbag2
(g3
g4
NtRp283
(dp284
g7
S'http://www.foodnetwork.com/recipes/melissa-darabian/israeli-couscous-tabouli-recipe.html'
p285
sg9
S'[* 1 cup israeli couscous, * kosher salt and freshly ground black pepper, * 1 lemon, zested and juiced, * 3 tablespoons olive oil, * 1 cup finely chopped parsley, * 1/2 cup finely chopped cilantro, * 2 tablespoons chopped fresh mint, * 2 ripe tomatoes, seeded and diced, * 3 scallions, chopped]'
p286
sbag2
(g3
g4
NtRp287
(dp288
g7
S'http://www.foodnetwork.com/recipes/giada-de-laurentiis/curried-couscous-salad-recipe.html'
p289
sg9
S'[* vegetable oil cooking spray, * 1 medium head cauliflower, trimmed and cut into 1/2 to 1-inch pieces, * 1/4 cup extra-virgin olive oil, * kosher salt and freshly ground black pepper, * 2 cups low-sodium chicken broth, * 1 1/2 tablespoons mild curry powder (recommended: spice islands), * 1/2 teaspoon salt, * 1 (10-ounce box) couscous, * 3/4 cup dried cranberries, * 1/2 cup coarsely chopped, roasted and lightly salted cashews, * 1 (4-inch) piece cucumber, peeled, seeded and chopped into 1/2-inch pieces, * 1/3 cup chopped fresh flat-leaf parsley, * 1 large lemon, zested, * 1/3 cup greek yogurt, * 1/4 cup extra-virgin olive oil, * 1 1/2 teaspoons mild curry powder (recommended: spice islands), * 2 tablespoons fresh lemon juice, * kosher salt and freshly ground black pepper]'
p290
sbag2
(g3
g4
NtRp291
(dp292
g7
S'http://www.foodnetwork.com/recipes/patrick-and-gina-neely/black-eyed-pea-salad-recipe.html'
p293
sg9
S'[* 1 large tomato, diced, * 1/2 medium red onion, finely chopped, * 1 small red bell pepper, finely chopped, * 1 jalapeno, finely chopped, * 2 tablespoons chopped green onions, * 2 tablespoons chopped fresh parsley leaves, * 1/4 cup unseasoned rice wine vinegar, * 1/4 cup canola oil, * 1/2 teaspoon sugar, * salt and freshly ground black pepper, * 2 (15-ounce) cans black-eyed peas, drained]'
p294
sbag2
(g3
g4
NtRp295
(dp296
g7
S'http://www.foodnetwork.com/recipes/emeril-lagasse/alains-broiled-catfish-with-lima-beans-recipe.html'
p297
sg9
S'[* 1 1/2 pounds frozen lima beans, defrosted, * 3 ounces thick-cut bacon, diced, * 1 onion, finely chopped, * 1/2 red bell pepper, finely chopped, * 2 tablespoons minced garlic, * 2 1/2 teaspoons chopped fresh thyme leaves, * 1 1/4 teaspoons salt, * 1/4 teaspoon freshly ground black pepper, * 2 cups chicken broth, * 6 (6-8 ounce) catfish fillets, * 1/2 teaspoon white pepper, * 1/4 cup extra-virgin olive oil, * 1 lemon, juiced, * chopped parsley leaves, for garnish]'
p298
sbag2
(g3
g4
NtRp299
(dp300
g7
S'http://www.foodnetwork.com/recipes/food-network-kitchens/lemon-salmon-with-lima-beans-recipe.html'
p301
sg9
S'[* 1 lemon, halved, * 1/2 cup nonfat plain greek yogurt, * 3/4 teaspoon paprika, * 2 teaspoons extra-virgin olive oil, * 3 cloves garlic, thinly sliced, * 3/4 teaspoon dried oregano, * pinch of red pepper flakes, * 1 1 -pound bag frozen baby lima beans, * kosher salt and freshly ground pepper, * 2 tablespoons chopped fresh parsley, * 4 5 -ounce skinless center-cut salmon fillets]'
p302
sbag2
(g3
g4
NtRp303
(dp304
g7
S'http://www.foodnetwork.com/recipes/giada-de-laurentiis/garbanzo-bean-and-olive-tapenade-recipe.html'
p305
sg9
S'[* 1 (15-ounce) can garbanzo beans, drained and rinsed, * 1 cup pitted black olives, such as kalamata, * 1/4 cup extra-virgin olive oil, * 1/4 cup chopped fresh flat-leaf parsley leaves, * 2 tablespoons fresh lemon juice (from 1/2 large lemon), * 1 tablespoon honey, * 1 teaspoon lemon zest, * 3/4 teaspoon chopped fresh rosemary leaves, * 1/4 teaspoon kosher salt, * serving suggestion: belgian endive leaves, crudite]'
p306
sbag2
(g3
g4
NtRp307
(dp308
g7
S'http://www.foodnetwork.com/recipes/giada-de-laurentiis/garbanzo-bean-and-zucchini-salad-recipe.html'
p309
sg9
S'[* 2 tablespoons fresh lemon juice, * 1/4 cup extra-virgin olive oil, * 1/2 teaspoon salt, * 1/4 teaspoon freshly ground black pepper, * 1 cup garbanzo beans, * 2 medium zucchini, diced into 1/4-inch pieces, * 1/2 cup frozen corn, thawed, * 1/2 small red onion, thinly sliced, rinsed, * 5 romaine lettuce leaves, cut crosswise into 1/2-inch strips, * 1 -ounce parmesan, crumbled into 1/4-inch pieces]'
p310
sbag2
(g3
g4
NtRp311
(dp312
g7
S'http://www.foodnetwork.com/recipes/artichoke-and-tuna-panini-with-garbanzo-bean-spread-recipe.html'
p313
sg9
S'[* 1 (15 1/2-ounce) can garbanzo beans, drained, * 2 cloves garlic, * 1/4 cup fresh mint, * 2 teaspoons lemon zest, * 3 tablespoons lemon juice, * 3 tablespoons extra-virgin olive oil, * 1/4 teaspoon salt, * 1/4 teaspoon freshly ground black pepper, * 1 cup pitted black olives, finely chopped, * 2/3 cup extra-virgin olive oil, * 1/2 teaspoon salt, * 1/2 teaspoon freshly ground black pepper, * 2 (5 1/2-ounce) cans italian tuna in olive oil, drained (recommended: flot), * 1 (13 3/4-ounce) can quartered artichoke hearts, drained, * 8 mini baguettes, sliced in 1/2 lengthwise, * 2 cups arugula, * special equipment: brown parchment paper for wrapping the sandwiches]'
p314
sbag2
(g3
g4
NtRp315
(dp316
g7
S'http://www.foodnetwork.com/recipes/chicken-with-paprika-kidney-beans-recipe.html'
p317
sg9
S'[* 1 cup plain yogurt, * 1/3 cup tomato sauce, * 1/4 cup olive oil, * 3 boneless, whole chicken breasts, with skin, * salt and freshly ground black pepper, * 1 onion, diced, * 4 cloves garlic, creamed to a paste with kosher salt, * 1 tablespoon sugar, * 1 tablespoon paprika, * 2 tablespoons sherry vinegar, * pinch of cayenne pepper, * 2 cups cooked red kidney beans]'
p318
sbag2
(g3
g4
NtRp319
(dp320
g7
S'http://www.foodnetwork.com/recipes/ina-garten/israeli-couscous-and-tuna-salad-recipe.html'
p321
sg9
S'[* 2 cups israeli couscous (10 to 12 ounces), * 2 (7-ounce) cans or jars italian tuna, drained and flaked, * 2 teaspoons grated lemon zest (2 lemons), * 1/4 cup freshly squeezed lemon juice, * 1/2 cup good olive oil, * 3 tablespoons capers, drained, * 1/2 cup pitted, oil-cured black olives, coarsely chopped (3 ounces), * 1/2 cup jarred roasted red peppers, medium-diced (4 ounces), * 2 teaspoons minced garlic (2 cloves), * kosher salt and freshly ground black pepper, * 1 cup chopped scallions (6-8 scallions), * 1/4 cup julienned fresh basil leaves, lightly packed, * juice of 1/2 lemon]'
p322
sbag2
(g3
g4
NtRp323
(dp324
g7
S'http://www.foodnetwork.com/recipes/giada-de-laurentiis/spinach-salad-with-orange-vinaigrette-recipe.html'
p325
sg9
S'[* 6 slices prosciutto, * 2 oranges, zested, * 2 small oranges, juiced or 1 large orange, juiced, * 2 tablespoons balsamic vinegar, * 2 tablespoons honey, * 1 clove garlic, peeled, * 3/4 teaspoon salt, * 3/4 teaspoon freshly ground black pepper, * 3/4 cup extra-virgin olive oil, * 10 to 12 ounces pre-washed spinach]'
p326
sbag2
(g3
g4
NtRp327
(dp328
g7
S'http://www.foodnetwork.com/recipes/ellie-krieger/chinese-chicken-salad-recipe.html'
p329
sg9
S'[* 4 tablespoons low-sodium soy sauce, divided, * 2 teaspoons toasted sesame oil, divided, * 1 pound skinless, boneless chicken breasts, * 1/2 head napa cabbage, thinly shredded (about 6 cups), * 1/4 head red cabbage, shredded (about 2 cups), * 1 large carrot, shredded (about 2 cups), * 3 scallions, trimmed and thinly sliced, greens included (about 1/2 cup), * 1 (8-ounce) can sliced water chestnuts, * 1 (11-ounce) can mandarin oranges in water, drained, * 1/3 cup rice wine vinegar, * 1 teaspoon minced garlic, * 1 teaspoon minced ginger, * 2 tablespoons canola oil, * 2 tablespoons brown sugar, * 1 1/2 teaspoons chili-garlic sauce or chili sauce, * 1/4 cup sliced almonds, toasted]'
p330
sbag2
(g3
g4
NtRp331
(dp332
g7
S'http://www.foodnetwork.com/recipes/emeril-lagasse/garbanzo-beans-and-spinach-casserole-recipe.html'
p333
sg9
S'[* 1/2 pound chorizo sausage, removed from casings and chopped, * 1 (15-ounce) can chickpeas, rinsed and drained, * 1/2 cup thinly sliced onion, * 1/4 cup chopped red bell pepper, * 1 teaspoon salt, * 1/2 teaspoon red pepper flakes, * 2 fresh bay leaves, * 1 tablespoon minced garlic, * 1 (10-ounce) package fresh spinach, stems removed and rinsed, * 1/2 cup dry white wine]'
p334
sbag2
(g3
g4
NtRp335
(dp336
g7
S'http://www.foodnetwork.com/recipes/ree-drummond/perfect-spinach-salad-recipe.html'
p337
sg9
S'[* 3 whole eggs, * ice, * 7 slices thick-cut peppered bacon, * 1 small whole red onion, * 1 package white button mushrooms, * 3 tablespoons red wine vinegar, * 2 teaspoons sugar, * 1/2 teaspoon dijon mustard, * 1 dash salt, * 8 ounces baby spinach, washed, dried and stems removed]'
p338
sbag2
(g3
g4
NtRp339
(dp340
g7
S'http://www.foodnetwork.com/recipes/ina-garten/corn-and-avocado-salad.html'
p341
sg9
S'[* kosher salt, * 4 ears of corn, shucked, * 4 ripe hass avocados, seeded, peeled, and 1/2-inch diced, * juice of 1 lemon, * 2 pints grape tomatoes, sliced in half lengthwise, * 2 red bell peppers, seeded and 1/2-inch diced, * 1 cup chopped red onion, * 1/4 cup seeded and minced jalapeno peppers, seeded, * 1 lime, zested, * 1/2 cup freshly squeezed lime juice, * 1/4 cup good olive oil, * 1 teaspoon freshly ground black pepper, * 1 teaspoon minced garlic, * 1/2 teaspoon ground cayenne pepper]'
p342
sbag2
(g3
g4
NtRp343
(dp344
g7
S'http://www.foodnetwork.com/recipes/sunny-anderson/mango-and-avocado-salad-recipe.html'
p345
sg9
S'[* 1 tablespoon balsamic vinegar, * 1 tablespoon lime juice, * 2 tablespoons extra-virgin olive oil, * 2 mangos, cubed, * 2 avocados, cubed, * 1/2 small red onion, diced, * salt and freshly ground black pepper]'
p346
sbag2
(g3
g4
NtRp347
(dp348
g7
S'http://www.foodnetwork.com/recipes/rachael-ray/tomato-onion-and-cucumber-salad-recipe.html'
p349
sg9
S'[* 5 medium plum tomatoes, halved lengthwise, seeded, and thinly sliced, * 1/4 red onion, peeled, halved lengthwise, and thinly sliced, * 1 kirby cucumber, halved lengthwise and thinly sliced, * a generous drizzle of extra-virgin olive oil, about 2 tablespoons, * 2 splashes red wine vinegar, * coarse salt and black pepper]'
p350
sbag2
(g3
g4
NtRp351
(dp352
g7
S'http://www.foodnetwork.com/recipes/tyler-florence/salad-nicoise-with-seared-tuna-recipe.html'
p353
sg9
S'[* 2 garlic cloves, minced, * 1 teaspoon dijon mustard, * 3 tablespoons red wine vinegar, * 1/2 lemon, juiced, * 2 tablespoons chopped fresh flat-leaf parsley, * 2 tablespoons minced fresh tarragon, * sea salt and freshly ground black pepper, * 1/2 cup extra-virgin olive oil, * 1 pound small red new potatoes, scrubbed and halved, * 8 large eggs, * 1/2 pound haricots verts or french green beans, stems trimmed, * 2 pounds fresh sushi-quality tuna, * 2 tablespoons extra-virgin olive oil, * sea salt and freshly ground black pepper, * 1 pint teardrop or cherry tomatoes, halved, * 1 cup nicoise olives, * 16 anchovy fillets, * 16 caper berries with stems, * 1/2 bunch fresh chives, snipped in 1/2]'
p354
sbag2
(g3
g4
NtRp355
(dp356
g7
S'http://www.foodnetwork.com/recipes/ellie-krieger/wheat-berry-salad-recipe2.html'
p357
sg9
S'[* 1 1/2 cups hard wheat berries, * 3/4 cup chopped walnuts, * 2 stalks celery, finely chopped, * 1/2 cup tart dried cherries, chopped, * 1 scallion, white and green parts, chopped, * 1/2 cup finely chopped parsley leaves, * 3 tablespoons olive oil, * 2 tablespoons lemon juice, * salt and freshly ground black pepper]'
p358
sbag2
(g3
g4
NtRp359
(dp360
g7
S'http://www.foodnetwork.com/recipes/ina-garten/vinaigrette-for-green-salad-recipe.html'
p361
sg9
S'[* 1 teaspoon dijon mustard, * 1 teaspoon minced fresh garlic, * 3 tablespoons champagne vinegar, * kosher salt and freshly ground black pepper, * 1/2 cup good olive oil, * salad greens or mesclun mix for 6 to 8 people]'
p362
sbag2
(g3
g4
NtRp363
(dp364
g7
S'http://www.foodnetwork.com/recipes/alton-brown/fresh-broccoli-salad-recipe.html'
p365
sg9
S'[* 1 tablespoon white wine vinegar, * 1 lemon, zested, * 1 tablespoon freshly squeezed lemon juice, * 2 teaspoons dijon mustard, * 1 teaspoon kosher salt, * pinch freshly ground black pepper, * 1/4 cup olive oil, * 1 pound broccoli, rinsed, trimmed and sliced thinly on a mandolin, * 6 ounces cherry or grape tomatoes, halved, * 3 ounces coarsely chopped, toasted pecans or hazelnuts, * 2 tablespoons chiffonade fresh basil leaves]'
p366
sbag2
(g3
g4
NtRp367
(dp368
g7
S'http://www.foodnetwork.com/recipes/ina-garten/tomato-feta-pasta-salad-recipe.html'
p369
sg9
S'[* 1/2 pound fusilli (spirals) pasta, * kosher salt, * good olive oil, * 1 pound ripe tomatoes, medium-diced, * 3/4 cup good black olives, such as kalamata, pitted and diced, * 1 pound good feta cheese, medium-diced, * 6 sun-dried tomatoes in oil, drained and chopped, * 5 sun-dried tomatoes in oil, drained, * 2 tablespoons red wine vinegar, * 6 tablespoons good olive oil, * 1 garlic clove, diced, * 1 teaspoon capers, drained, * 1 teaspoon kosher salt, * 3/4 teaspoon freshly ground black pepper, * 1 cup freshly grated parmesan, * 1 cup packed flat-leaf parsley, chopped]'
p370
sbag2
(g3
g4
NtRp371
(dp372
g7
S'http://www.foodnetwork.com/recipes/aarti-sequeira/massaged-kale-salad-recipe.html'
p373
sg9
S'[* 1 bunch kale (black kale is especially good), stalks removed and discarded, leaves thinly sliced, * 1 lemon, juiced, * 1/4 cup extra-virgin olive oil, plus extra for drizzling, * kosher salt, * 2 teaspoons honey, * freshly ground black pepper, * 1 mango, diced small (about 1 cup), * small handful toasted pepitas ( pumpkin seeds), about 2 rounded tablespoons]'
p374
sbag2
(g3
g4
NtRp375
(dp376
g7
S'http://www.foodnetwork.com/recipes/ina-garten/balsamic-roasted-beet-salad-recipe.html'
p377
sg9
S'[* 8 medium-size beets, tops removed and scrubbed, * 1/2 cup balsamic vinegar, * 1/2 cup good olive oil, * 2 teaspoons dijon mustard, such as grey poupon, * kosher salt and freshly ground black pepper, * 4 ounces baby arugula, * 1/3 cup roasted, salted marcona almonds, toasted, * 4 ounces soft goat cheese, such as montrachet, crumbled]'
p378
sbag2
(g3
g4
NtRp379
(dp380
g7
S'http://www.foodnetwork.com/recipes/giada-de-laurentiis/tuscan-salad-recipe.html'
p381
sg9
S'[* 8 ounces green beans, cut into 1 to 2-inch pieces (about 2 cups), * 1 head romaine lettuce, torn, * 1 (15-ounce) can cannellini beans, drained and rinsed, * 1/2 cup pitted black olives, * 1/2 red onion, cut into slivers, * 1 lemon, juiced, * 1/4 cup extra-virgin olive oil, * 1 teaspoon kosher salt, * 1 teaspoon freshly ground black pepper, * 1 ounce shaved parmesan (about 1/2 cup)]'
p382
sbag2
(g3
g4
NtRp383
(dp384
g7
S'http://www.foodnetwork.com/recipes/ina-garten/fresh-corn-salad-recipe.html'
p385
sg9
S'[* 5 ears of corn, shucked, * 1/2 cup small-diced red onion (1 small onion), * 3 tablespoons cider vinegar, * 3 tablespoons good olive oil, * 1/2 teaspoon kosher salt, * 1/2 teaspoon freshly ground black pepper, * 1/2 cup julienned fresh basil leaves]'
p386
sbag2
(g3
g4
NtRp387
(dp388
g7
S'http://www.foodnetwork.com/recipes/ree-drummond/quick-italian-salad.html'
p389
sg9
S'[* 1/2 cup olive oil, * 1/4 cup mayonnaise, * 1/4 cup grated parmesan (pre-grated in a pack from the store), * 1/4 cup minced fresh parsley, * 1 tablespoon sugar, * 1 tablespoon vinegar, * 2 teaspoons black pepper, * 1 teaspoon salt, * 1/4 teaspoon red pepper flakes, * 1 clove garlic, pressed, * juice of 1 lemon, * 1 head romaine lettuce, roughly chopped, * 1/2 head iceberg lettuce, chunked, * 6 whole pepperoncini, * 1/2 cup whole black olives, * 1/2 cup whole red cherry tomatoes, * 1/2 small red onion, very thinly sliced into circles, * 1/3 cup grated parmesan]'
p390
sbag2
(g3
g4
NtRp391
(dp392
g7
S'http://www.foodnetwork.com/recipes/jeff-mauro/spring-pasta-salad-recipe.html'
p393
sg9
S'[* 1/3 cup extra-virgin olive oil, * 2 teaspoons dijon mustard, * 1 teaspoon honey, * 1 clove garlic, grated, * 1 lemon, zested and juiced, * salt and freshly cracked black pepper, * 12 ounces cavatappi pasta, cooked to package instructions and shocked under cold water, * 4 ounces asparagus, blanched and thinly sliced on the bias, * 1 box frozen peas, defrosted, * one 12-ounce jar roasted yellow peppers, chopped, * 1 pint grape tomatoes, halved, * 1 shallot, minced, * 1/2 cup fresh dill, chopped, * ricotta salata, for garnish]'
p394
sbag2
(g3
g4
NtRp395
(dp396
g7
S'http://www.foodnetwork.com/recipes/giada-de-laurentiis/whipped-ricotta-salad.html'
p397
sg9
S'[* 1 cup whole-milk ricotta cheese, chilled, * 2 teaspoons olive oil, * 1/8 teaspoon salt, * 1 cup packed fresh basil leaves, * 2 tablespoons pine nuts, toasted, * 2 tablespoons white balsamic vinegar, * 1/2 teaspoon salt, * 1/4 teaspoon red pepper flakes, * 3 tablespoons olive oil, * 1 cup heirloom cherry tomatoes, halved or quartered depending on size, * 18 snap peas, cleaned and cut in half (about 1/4 pound), * 3 cups baby arugula]'
p398
sbag2
(g3
g4
NtRp399
(dp400
g7
S'http://www.foodnetwork.com/recipes/alton-brown/spinach-salad-with-warm-bacon-dressing-recipe.html'
p401
sg9
S'[* 8 ounces young spinach, * 2 large eggs, * 8 pieces thick-sliced bacon, chopped, * 3 tablespoons red wine vinegar, * 1 teaspoon sugar, * 1/2 teaspoon dijon mustard, * kosher salt and freshly ground black pepper, * 4 large white mushrooms, sliced, * 3 ounces red onion (1 small), very thinly sliced]'
p402
sbag2
(g3
g4
NtRp403
(dp404
g7
S'http://www.foodnetwork.com/recipes/alton-brown/fruit-salad-with-vanilla-dressing-recipe.html'
p405
sg9
S'[* 1/2 cup plain yogurt, * 1/4 cup mayonnaise, * 1 teaspoon lemon juice, * 1 teaspoon honey, * 1 teaspoon pure vanilla extract, * 1/4 teaspoon kosher salt, * freshly ground black pepper, * 1 granny smith apple, cored and diced, * 1 cup seedless grapes, halved, * 1 pear, peeled, cored and diced, * 10 to 12 medium size strawberries, halved, * 1 mango, peeled and diced, * 1 banana, sliced, * 1/3 cup chopped walnuts, toasted]'
p406
sbag2
(g3
g4
NtRp407
(dp408
g7
S'http://www.foodnetwork.com/recipes/alton-brown/parsley-salad-recipe.html'
p409
sg9
S'[* 4 ounces (about 2 quarts) italian parsley, * 2 tablespoons fresh lemon juice, * 2 tablespoons lemon zest, * 6 tablespoons walnut oil, * 2 teaspoons dark sesame oil, * 1 teaspoon honey, * salt and freshly ground pepper, * 3 tablespoons toasted sesame seeds]'
p410
sbag2
(g3
g4
NtRp411
(dp412
g7
S'http://www.foodnetwork.com/recipes/paula-deen/red-potato-salad-recipe.html'
p413
sg9
S'[* 12 cups cubed red potatoes, * 1 cup chopped green bell pepper (about 1 medium), * 1/2 cup minced red onion, * 1/2 cup extra-virgin olive oil, * 1/3 cup red wine vinegar, * 2 tablespoons dijon mustard, * 2 tablespoons mayonnaise, * 1 1/2 teaspoons salt, * 1/2 teaspoon ground black pepper]'
p414
sbag2
(g3
g4
NtRp415
(dp416
g7
S'http://www.foodnetwork.com/recipes/alexandra-guarnaschelli/chilled-asparagus-salad-recipe.html'
p417
sg9
S'[* 6 quarts water, * kosher salt, * 2 tablespoons granulated sugar, * 32 stalks small to medium-size green asparagus, washed and ends trimmed, * 2 lemons, juiced, * 2 tablespoons white wine vinegar, * 1 teaspoon honey, * 2 tablespoons smooth dijon mustard, * 4 tablespoons olive oil]'
p418
sbag2
(g3
g4
NtRp419
(dp420
g7
S'http://www.foodnetwork.com/recipes/giada-de-laurentiis/citrus-salad-recipe.html'
p421
sg9
S'[* 1 large orange, peeled and ends trimmed, * 1 grapefruit, peeled and ends trimmed, * 1 large or 2 small fennel bulbs, thinly sliced, * 1/4 cup extra-virgin olive oil, * 1/4 cup packed fresh basil leaves, * kosher salt and freshly ground black pepper, * 1/3 cup chopped walnuts, toasted]'
p422
sbag2
(g3
g4
NtRp423
(dp424
g7
S'http://www.foodnetwork.com/recipes/patrick-and-gina-neely/watermelon-salad-recipe.html'
p425
sg9
S'[* 2 tablespoons white wine vinegar, * 1 lime, zested and juiced, * 1/4 cup extra-virgin olive oil, * 1 red onion, thinly sliced, * 4 cups seeded watermelon chunks, * 1 cup crumbled feta cheese, * 1/4 cup mint chiffonade, * 2 cups baby arugula]'
p426
sbag2
(g3
g4
NtRp427
(dp428
g7
S'http://www.foodnetwork.com/recipes/trisha-yearwood/broccoli-salad-recipe.html'
p429
sg9
S'[* 8 ounces bacon, * salt, * 5 cups small broccoli florets, * 1 cup mayonnaise, * 1 tablespoon cider vinegar, * 1/3 cup chopped onion, * 1/4 cup sugar, * 3/4 cup raisins, * 1/2 cup sunflower kernels]'
p430
sbag2
(g3
g4
NtRp431
(dp432
g7
S'http://www.foodnetwork.com/recipes/paula-deen/salmon-salad-recipe.html'
p433
sg9
S'[* 2 cups cooked, flaked salmon, * 2 hard-boiled eggs, crushed, * 1 red or green bell pepper, diced, * 1 cucumber, peeled, seeded, and diced, * 1/2 cup chopped onions, * 4 to 5 tablespoons mayonnaise, or enough to moisten, * 1/4 teaspoon cayenne pepper, optional, * salt and pepper, * 1/2 lemon, juiced]'
p434
sbag2
(g3
g4
NtRp435
(dp436
g7
S'http://www.foodnetwork.com/recipes/giada-de-laurentiis/antipasto-salad-recipe.html'
p437
sg9
S'[* 1 bunch fresh basil, stemmed and leaves chopped (about 2 cups), * 1/4 cup red wine vinegar, * 1 clove garlic, * 1 teaspoon dijon mustard, * 1/2 teaspoon salt, * 1/2 teaspoon freshly ground black pepper, * 3/4 cup extra-virgin olive oil, * 1 pound fusilli pasta, * 1/2 cup hard salami, cut into strips (about 3 ounces), * 1/2 cup smoked turkey, cut into strips (about 3 ounces), * 1/4 cup provolone cheese, cut into strips, * 1/4 cup grated asiago cheese, * 2 tablespoons green olives, halved and pitted, * 2 tablespoons roasted red peppers, cut into strips, * 1/4 teaspoon salt, * 1/2 teaspoon freshly ground black pepper]'
p438
sbag2
(g3
g4
NtRp439
(dp440
g7
S'http://www.foodnetwork.com/recipes/ina-garten/potato-salad-recipe.html'
p441
sg9
S'[* 3 pounds small white potatoes, * kosher salt, * 1 cup mayonnaise, * 1/4 cup buttermilk, * 2 tablespoons dijon mustard, * 2 tablespoons whole-grain mustard, * 1/2 cup chopped fresh dill, * freshly ground black pepper, * 1/2 cup chopped celery, * 1/2 cup chopped red onion]'
p442
sbag2
(g3
g4
NtRp443
(dp444
g7
S'http://www.foodnetwork.com/recipes/rachael-ray/black-bean-and-corn-salad-recipe.html'
p445
sg9
S'[* 1 can, 14 ounces, black beans, rinsed and drained, * 2 cups frozen corn kernels, * 1 small red bell pepper, seeded and chopped, * 1/2 red onion, chopped, * 1 1/2 teaspoons ground cumin, half a palm full, * 2 teaspoons hot sauce, just eyeball the amount (recommended: tabasco), * 1 lime, juiced, * 2 tablespoons vegetable or olive oil, eyeball it, * salt and pepper]'
p446
sbag2
(g3
g4
NtRp447
(dp448
g7
S'http://www.foodnetwork.com/recipes/rachael-ray/greek-salad-recipe.html'
p449
sg9
S'[* 3 vine ripe tomatoes, cut into chunks, * 1 red onion, thinly sliced, * 1/2 european seedless cucumber, cut into bite-size chunks, * 1 small red bell pepper, seeded and chunked, * 1 small green bell pepper, seeded and chunked, * 1 cubanelle pepper, seeded and chunked, * 1 cup kalamata black olives, * several sprigs fresh flat-leaf parsley, about 1/2 cup, * 2 (1/4 pound) slices imported greek feta, * 1/4 cup (a couple of glugs) extra-virgin olive oil, * 3 tablespoons (3 splashes) red wine vinegar, * 1 teaspoon dried oregano, crushed in palm of your hand, * coarse salt and black pepper, * pita breads]'
p450
sbag2
(g3
g4
NtRp451
(dp452
g7
S'http://www.foodnetwork.com/recipes/giada-de-laurentiis/orzo-salad-recipe.html'
p453
sg9
S'[* 4 cups chicken broth, * 1 1/2 cups orzo, * 1 (15-ounce) can garbanzo beans, drained and rinsed, * 1 1/2 cups red and yellow teardrop tomatoes or grape tomatoes, halved, * 3/4 cup finely chopped red onion, * 1/2 cup chopped fresh basil leaves, * 1/4 cup chopped fresh mint leaves, * about 3/4 cup red wine vinaigrette, recipe follows, * salt and freshly ground black pepper, * 1/2 cup red wine vinegar, * 1/4 cup fresh lemon juice, * 2 teaspoons honey, * 2 teaspoons salt, * 3/4 teaspoon freshly ground black pepper, * 1 cup extra-virgin olive oil]'
p454
sbag2
(g3
g4
NtRp455
(dp456
g7
S'http://www.foodnetwork.com/recipes/ree-drummond/layered-salad.html'
p457
sg9
S'[* 2 heads iceberg lettuce, chopped, * 4 tomatoes, cut into wedges, * 8 ounces baby spinach, * 8 perfect hard boiled eggs, recipe follows, chopped, * salt and freshly ground black pepper, * 1 pound bacon, cooked and chopped, * 1 bunch green onions, thinly sliced, * 8 ounces grated sharp cheddar, * one 10-ounce bag frozen peas, partially thawed, * 1/2 cup mayonnaise, * 1/2 cup sour cream, * 1 1/2 teaspoons sugar, * 2 tablespoons chopped fresh dill, * 2 tablespoons chopped fresh parsley, * 8 eggs]'
p458
sbag2
(g3
g4
NtRp459
(dp460
g7
S'http://www.foodnetwork.com/recipes/jamie-deen/broccoli-salad-recipe.html'
p461
sg9
S'[* 4 slices bacon, * kosher salt, * 1 pound broccoli crowns, cut into florets (3 crowns), * 1 quart cherry tomatoes, * 1/2 cup roughly chopped roasted almonds, * 1/2 cup dried cranberries, * 1/2 cup edamame, * 2 teaspoons dijon mustard, * 2 teaspoons red wine vinegar, * 1/4 cup extra-virgin olive oil, * kosher salt and freshly ground black pepper]'
p462
sbag2
(g3
g4
NtRp463
(dp464
g7
S'http://www.foodnetwork.com/recipes/tyler-florence/fall-salad-recipe.html'
p465
sg9
S'[* 2 tablespoons unsalted butter, * 2 tablespoons packed light brown sugar, * 1/2 cup raw pecans, * 1 small shallot, finely diced, * 1 teaspoon dijon mustard, * 2 teaspoons balsamic vinegar, * 1/4 cup extra-virgin olive oil, * 2 teaspoons maple syrup, * kosher salt and freshly ground black pepper, * 1 head endive, separated leaves, * 2 hearts frisee, hand torn, * 1 large radicchio, torn leaves, * 1 red pear, sliced, * 1/4 cup shaved parmesan]'
p466
sbag2
(g3
g4
NtRp467
(dp468
g7
S'http://www.foodnetwork.com/recipes/sandra-lee/quinoa-salad-recipe.html'
p469
sg9
S'[* 1 cup quinoa, * 2 cups chicken or vegetable stock, * 1 hothouse cucumber, diced, * 2 scallions, * 1/2 cup roasted red pepper, diced, * 1/4 cup flat leaf parsley, finely chopped, * 1 tablespoon fines herbs (recommended: spice island), * 1/4 cup crumbled feta cheese, * 3 tablespoons slivered almonds, * 9 cups spring salad mix, * 1/4 cup light roasted garlic and balsamic salad dressing]'
p470
sbag2
(g3
g4
NtRp471
(dp472
g7
S'http://www.foodnetwork.com/recipes/ina-garten/guacamole-salad-recipe.html'
p473
sg9
S'[* 1 pint grape tomatoes, halved, * 1 yellow bell pepper, seeded and 1/2-inch diced, * 1 (15-ounce) can black beans, rinsed and drained, * 1/2 cup small diced red onion, * 2 tablespoons minced jalapeno peppers, seeded (2 peppers), * 1/2 teaspoon freshly grated lime zest, * 1/4 cup freshly squeezed lime juice (2 limes), * 1/4 cup good olive oil, * 1 teaspoon kosher salt, * 1/2 teaspoon freshly ground black pepper, * 1/2 teaspoon minced garlic, * 1/4 teaspoon ground cayenne pepper, * 2 ripe hass avocados, seeded, peeled, and 1/2-inch diced]'
p474
sbag2
(g3
g4
NtRp475
(dp476
g7
S'http://www.foodnetwork.com/recipes/giada-de-laurentiis/grilled-vegetables-recipe.html'
p477
sg9
S'[* 3 red bell peppers, seeded and halved, * 3 yellow squash (about 1 pound total), sliced lengthwise into 1/2-inch-thick rectangles, * 3 zucchini (about 12 ounces total), sliced lengthwise into 1/2-inch-thick rectangles, * 3 japanese eggplant (12 ounces total), sliced lengthwise into 1/2-inch-thick rectangles, * 12 cremini mushrooms, * 1 bunch (1-pound) asparagus, trimmed, * 12 green onions, roots cut off, * 1/4 cup plus 2 tablespoons olive oil, * salt and freshly ground black pepper, * 3 tablespoons balsamic vinegar, * 2 garlic cloves, minced, * 1 teaspoon chopped fresh italian parsley leaves, * 1 teaspoon chopped fresh basil leaves, * 1/2 teaspoon finely chopped fresh rosemary leaves]'
p478
sbag2
(g3
g4
NtRp479
(dp480
g7
S'http://www.foodnetwork.com/recipes/alton-brown/garden-vegetable-soup-recipe.html'
p481
sg9
S'[* 4 tablespoons olive oil, * 2 cups chopped leeks, white part only (from approximately 3 medium leeks), * 2 tablespoons finely minced garlic, * kosher salt, * 2 cups carrots, peeled and chopped into rounds (approximately 2 medium), * 2 cups peeled and diced potatoes, * 2 cups fresh green beans, broken or cut into 3/4-inch pieces, * 2 quarts chicken or vegetable broth, * 4 cups peeled, seeded, and chopped tomatoes, * 2 ears corn, kernels removed, * 1/2 teaspoon freshly ground black pepper, * 1/4 cup packed, chopped fresh parsley leaves, * 1 to 2 teaspoons freshly squeezed lemon juice]'
p482
sbag2
(g3
g4
NtRp483
(dp484
g7
S'http://www.foodnetwork.com/recipes/giada-de-laurentiis/frittata-with-asparagus-tomato-and-fontina-recipe.html'
p485
sg9
S'[* 6 large eggs, * 2 tablespoons whipping cream, * 1/2 teaspoon salt, plus a pinch, * 1/4 teaspoon freshly ground black pepper, * 1 tablespoon olive oil, * 1 tablespoon butter, * 12 ounces asparagus, trimmed, cut into 1/4 to 1/2-inch pieces, * 1 tomato, seeded, diced, * salt, * 3 ounces fontina, diced]'
p486
sbag2
(g3
g4
NtRp487
(dp488
g7
S'http://www.foodnetwork.com/recipes/bobby-flay/buckwheat-noodle-salad-recipe.html'
p489
sg9
S'[* 1/4 cup plus 2 tablespoons rice vinegar, * 1 teaspoon sugar, * 2 tablespoons peeled and finely grated fresh ginger, * 1 tablespoon honey, * 2 tablespoons tamari, * 2 teaspoons toasted sesame oil, * 2 teaspoons chili sauce (recommended: sriracha), * 1/4 cup canola oil, * 12 ounces buckwheat noodles, cooked according to package directions, rinsed under cold water and drained, * 1 carrot, peeled and grated on box grater, * 1 red bell pepper, seeded and julienned, * 1/4 english cucumber, peeled and grated on a box grater, * 3 green onions, thinly sliced, * 1/4 cup chopped fresh cilantro leaves]'
p490
sbag2
(g3
g4
NtRp491
(dp492
g7
S'http://www.foodnetwork.com/recipes/food-network-kitchens/tofu-tacos-recipe.html'
p493
sg9
S'[* 12 ounces firm tofu, drained and cut into 8 slices, * 4 cups shredded coleslaw mix, * 1 small bunch radishes, thinly sliced, * 1/2 cup chopped fresh cilantro, * 1 bunch scallions, sliced, * 1 1/2 tablespoons extra-virgin olive oil, * 2 limes (1 zested and juiced, 1 cut into wedges), * 1/4 cup nonfat plain greek yogurt, * kosher salt and freshly ground pepper, * 1 tablespoon taco seasoning, * 8 8 -inch whole-wheat tortillas, * 1/4 cup shredded part-skim mozzarella or pepper jack cheese, * 1/4 cup jarred salsa verde]'
p494
sbag2
(g3
g4
NtRp495
(dp496
g7
S'http://www.foodnetwork.com/recipes/robin-miller/vegetarian-paella-recipe.html'
p497
sg9
S'[* 2 teaspoons olive oil, * 8 ounces soy sausage, cut into 1-inch pieces, * 2 cloves garlic, minced, * 1 cup marinated artichoke hearts, quartered, * 1 cup sliced yellow squash, * 1 cup baby squash or sliced zucchini, * 1 cup sliced carrots, * 1 bunch asparagus, ends trimmed, cut into 2-inch pieces, * 1/2 cup frozen green peas, * 14 -ounce can diced tomatoes, * 6 to 8 saffron threads, * 1/2 teaspoon paprika, * 2 bay leaves, * 2 cups cooked rice, * 1/2 cup reduced-sodium vegetable broth, * 1/4 cup chopped fresh parsley leaves, * salt and freshly ground black pepper]'
p498
sbag2
(g3
g4
NtRp499
(dp500
g7
S'http://www.foodnetwork.com/recipes/alton-brown/vegetarian-steamed-dumplings-recipe.html'
p501
sg9
S'[* 1/2 pound firm tofu, * 1/2 cup coarsely grated carrots, * 1/2 cup shredded napa cabbage, * 2 tablespoons finely chopped red pepper, * 2 tablespoons finely chopped scallions, * 2 teaspoons finely minced fresh ginger, * 1 tablespoon chopped cilantro leaves, * 1 tablespoon soy sauce, * 1 tablespoon hoisin sauce, * 2 teaspoons sesame oil, * 1 egg, lightly beaten, * 1 teaspoon kosher salt, * 1/4 teaspoon freshly ground black pepper, * bowl of water, plus additional water for steamer, * 35 to 40 small wonton wrappers, * non-stick vegetable spray, for the steamer]'
p502
sbag2
(g3
g4
NtRp503
(dp504
g7
S'http://www.foodnetwork.com/recipes/vegetarian-southern-style-collard-greens-recipe.html'
p505
sg9
S'[* 1 tablespoon olive oil, * 1 tablespoon butter, * 1/2 large onion, chopped, * 1 teaspoon red pepper flakes, * 1 clove garlic, finely chopped, * 1 pound collard greens, chopped, * 3 cups vegetable stock, * 2 tomatoes, seeded and chopped, * salt and freshly ground black pepper]'
p506
sbag2
(g3
g4
NtRp507
(dp508
g7
S'http://www.foodnetwork.com/recipes/food-network-kitchens/vegetable-biryani-recipe.html'
p509
sg9
S'[* 3/4 cups basmati rice, * 1 tablespoon unsalted butter, * 2 tablespoons golden raisins, * 2 tablespoons blanched, sliced almonds, * 1/2 teaspoon turmeric, * 1/4 teaspoon whole cumin seeds, * 1/4 teaspoon whole coriander seeds, * 3 whole cardamom pods, * 1 cinnamon stick, broken in half, * 1 1/2 cups water, * 1 teaspoon kosher salt, * 2 tablespoons unsalted butter, * 1/4 small yellow onion, thinly sliced, * 1 tablespoon peeled, minced fresh ginger, * 2 cloves garlic, minced, * 2 tablespoons golden raisins, * 2 tablespoons blanched, sliced almonds, * 1 1/2 teaspoons whole coriander seeds, * 1/2 teaspoon whole cumin seeds, * 5 whole cardamom pods, * 1 cup small cauliflower florets, * 3 ounces green beans, cut into 1-inch pieces, * 3 small new potatoes (about 6 ounces), peeled and quartered, * 1 medium carrot, cut into 1-inch pieces, * 1 teaspoon kosher salt, * 2/3 cup water, * 2 tablespoons toasted shredded coconut, * 2 tablespoons toasted blanched, sliced almonds, * copyright 2001 television food network, g.p. all rights reserved.]'
p510
sbag2
(g3
g4
NtRp511
(dp512
g7
S'http://www.foodnetwork.com/recipes/food-network-kitchens/roasted-root-vegetables-recipe.html'
p513
sg9
S'[* 1 large butternut squash, (1 1/2 to 2 pounds) halved, seeded and peeled, * 3 large yukon gold potatoes (1 1/2 pounds), scrubbed, * 1 bunch medium beets, (about 1 1/2 pounds), scrubbed and tops trimmed, * 1 medium red onion, * 2 large parsnips (about 8 ounces), * 1 head garlic, cloves separated, and peeled (about 16), * 2 tablespoons extra-virgin olive oil, plus more for drizzling, * 1 1/2 teaspoons kosher salt, * freshly ground black pepper]'
p514
sbag2
(g3
g4
NtRp515
(dp516
g7
S'http://www.foodnetwork.com/recipes/ellie-krieger/grilled-vegetable-salad-with-feta-and-mint-recipe.html'
p517
sg9
S'[* 1 red bell pepper cored and cut into 4 pieces, * 1 eggplant (about 1 pound), cut across into 1/4-inch rounds, * 1 medium onion, cut into 1/4-inch slices, * 2 medium zucchini (about 8 ounces each), cut lengthwise into 1/4-inch slices, * olive oil cooking spray, * 5 tablespoons extra-virgin olive oil, * 2 tablespoons red wine vinegar, * 1/2 teaspoon dried oregano, * salt and freshly ground black pepper, * 1 cup grape tomatoes, halved, * 1/4 cup chopped fresh mint, * 1/2 cup crumbled feta cheese]'
p518
sbag2
(g3
g4
NtRp519
(dp520
g7
S'http://www.foodnetwork.com/recipes/alton-brown/vegetable-curry-recipe.html'
p521
sg9
S'[* 1 (1-pound) bag mixed frozen vegetables, * 2/3 cup plain yogurt, * 1 teaspoon cornstarch, * 2 tablespoons vegetable oil, * 1 teaspoon cumin seeds, * 1/2 teaspoon fennel seeds, * 1/2 teaspoon mustard seeds, * 1 teaspoon ground turmeric, * 1/2 teaspoon onion powder, * 1/2 teaspoon freshly ground coriander, * 1/8 teaspoon freshly ground cinnamon, * 2 medium cloves garlic, crushed, * 3 dried red chiles, stems and seeds removed if less heat is desired, * 1/4 teaspoon sugar, * 1/2 teaspoon kosher salt, * black pepper, optional]'
p522
sbag2
(g3
g4
NtRp523
(dp524
g7
S'http://www.foodnetwork.com/recipes/rachael-ray/three-vegetable-penne-with-tarragon-basil-pesto-recipe.html'
p525
sg9
S'[* 1 pound penne rigate (with lines) pasta, * salt, * 1/2 pound asparagus, trimmed of tough ends, * 1 small zucchini, * 1/4 pound, haricots verts (thin green beans) trimmed of stem ends, * 1/4 cup pine nuts, * 1 cup basil, 20 leaves, * 1/2 cup tarragon leaves from 10 to 12 stems, * handful flat-leaf parsley, * 1 lemon, zested, * 1 clove garlic, * 1/2 cup grated parmigiano-reggiano, plus more to pass at table, * coarsely ground black pepper, * 1/3 cup extra-virgin olive oil, eyeball it]'
p526
sbag2
(g3
g4
NtRp527
(dp528
g7
S'http://www.foodnetwork.com/recipes/food-network-kitchens/vegetarian-ribollita-recipe.html'
p529
sg9
S'[* 1/4 cup extra-virgin olive oil, plus more for drizzling, * 1 medium onion, diced (2 1/2 cups), * 1 rib celery, sliced (3/4 cups), * 1 medium zucchini, diced (1 1/4 cups or 5 1/4 ounces), * 2 carrots, peeled and diced (1/3 cup), * 3 cloves garlic, chopped, * 1 sprig fresh rosemary, * kosher salt, * freshly ground black pepper, * 1 head savoy cabbage, cleaned and coarsely chopped or shredded (7 1/2 cups), * 1 (15-ounce) can diced tomatoes, in juice, * 1/2 cup chopped fresh basil leaves, * 1 teaspoon dried marjoram, * 1 (15-ounce) can cannellini beans, * 10 cups vegetable broth, * 4 cups cubed sourdough bread (about 1/2 loaf), * 3 cups baby spinach leaves, * 1/2 cup shaved pecorino-romano]'
p530
sbag2
(g3
g4
NtRp531
(dp532
g7
S'http://www.foodnetwork.com/recipes/rachael-ray/roasted-squash-vegetable-medley-recipe.html'
p533
sg9
S'[* 1 medium zucchini, cut into chunks, * 1 medium yellow squash, cut into chunks, * 1 medium onion, halved then cut into chunks, * 1/2 pound button mushrooms, quartered or halved, * 2 tablespoons olive oil or vegetable oil, * 1 teaspoon poultry seasoning, * 1 teaspoon salt, * 1 teaspoon freshly ground black pepper]'
p534
sbag2
(g3
g4
NtRp535
(dp536
g7
S'http://www.foodnetwork.com/recipes/food-network-kitchens/seven-vegetable-couscous-recipe.html'
p537
sg9
S'[* 3 cloves garlic, smashed, * 2 small turnips, peeled and quartered, * 1 medium yellow onion, quartered lengthwise, root end intact, * 1 large carrot, peeled and cut into 2-inch chunks, * 1/2 fennel bulb, thickly sliced lengthwise, root end intact, * 1/3 cup golden raisins, * 1 tablespoon peeled, chopped, fresh ginger, * 1 tablespoon kosher salt, * 2 teaspoons each ground cumin, paprika, and sugar, * 1 1/2 teaspoons ground turmeric, * 1/8 teaspoon ground cloves, * 1 cinnamon stick, snapped in half, * 2 cups water, * 1 pound butternut squash, * 1 small zucchini, cut into 2-inch rounds, * 1 (15 1/2-ounce) can chickpeas, rinsed and drained, * 4 sprigs fresh flat-leaf parsley, tied together with kitchen string, * 1 cup canned whole peeled tomatoes, with their juices, * 2 cups cold water, * 1 tablespoon unsalted butter, * 1 teaspoon kosher salt, * 1 1/2 cups uncooked couscous, * 1/2 cup sliced almonds, toasted, * harissa (tunisian hot sauce)]'
p538
sbag2
(g3
g4
NtRp539
(dp540
g7
S'http://www.foodnetwork.com/recipes/moroccan-vegetables-with-couscous-recipe.html'
p541
sg9
S'[* 1 tablespoon olive oil, * 1 large onion, chopped, * 1 teaspoon cinnamon, * 1/2 teaspoon allspice, * 1 teaspoon ground coriander, * 2 teaspoon cumin, * 1 teaspoon cayenne, * 4 carrots, peeled and cut into 1" pieces, * 2 russet potatoes, peeled and cut into large chunks, * 1 small butternut squash, peeled, seeded, cut into 1" chunks, * 2 cups chopped whole plum tomatoes with juices, * 2 cups water, * 2 small zucchini, cut into 1" pieces, * 1 15 -ounce can chickpeas, * salt and pepper, * tabasco to taste, * 1/2 cup chopped cilantro]'
p542
sbag2
(g3
g4
NtRp543
(dp544
g7
S'http://www.foodnetwork.com/recipes/vegetable-lasagna.html'
p545
sg9
S'[* 2 tablespoons olive oil, plus 1/4 cup, plus 2 tablespoons, * 1 medium onion, finely chopped, * 4 cloves garlic, crushed, plus 1 teaspoon minced garlic, plus 2 cloves garlic, minced, * 1 teaspoon dried oregano, * 1 teaspoon dried basil, * 1 teaspoon dried parsley, * 24 ounces canned crushed tomatoes, * 1/4 teaspoon salt, * 1/2 teaspoon dried thyme, * 2 medium zucchini, cut lengthwise into 1/4-inch thick slices, * 1 eggplant, cut into bite-sized pieces, * 1 medium yellow squash, cut into bite-sized pieces, * 1 cup button mushrooms, sliced 1/4-inch thick, * 2 portobello mushroom, sliced 1/4-inch thick, * 1/2 cup low-fat ricotta cheese, * 1 cup reduced-fat shredded mozzarella cheese, * 1/2 cup grated parmesan]'
p546
sbag2
(g3
g4
NtRp547
(dp548
g7
S'http://www.foodnetwork.com/recipes/vegetable-tofu-stir-fry-recipe.html'
p549
sg9
S'[* 1 tablespoon vegetable oil, * 1/2 onion, sliced, * 2 cloves garlic, finely chopped, * 1 tablespoon ginger, finely chopped, * 8 ounces firm or extra firm tofu, sliced into bite size pieces, * 1/4 cup water, * 2 tablespoons rice wine vinegar, * 1 tablespoon honey or sugar, * 1 tablespoon soy sauce, * 1 teaspoon cornstarch mixed with 1 tablespoon cold water, * 1 carrot, peeled and thinly sliced on the diagonal, * 1 red, yellow or green bell pepper, seeded and cut into slices, * 1 small bok choy, sliced and coarsely chopped, * 2 scallions, thinly sliced on the diagonal]'
p550
sbag2
(g3
g4
NtRp551
(dp552
g7
S'http://www.foodnetwork.com/recipes/emeril-lagasse/creole-vegetable-jambalaya-recipe.html'
p553
sg9
S'[* 1/2 cup vegetable oil, * 3 cups small diced onions, * 2 tablespoons minced shallots, * 1 cups small diced bell peppers, * 2 cups small diced eggplant, * 2 cups small diced yellow squash, * 1 tablespoon minced garlic, * 3 cups chopped tomatoes, * 3 teaspoons salt, * 2 teaspoons cayenne, * 3 bay leaves, * 3 cups long-grain rice, * 6 cups water, * 1 cup chopped green onions]'
p554
sbag2
(g3
g4
NtRp555
(dp556
g7
S'http://www.foodnetwork.com/recipes/food-network-kitchens/shrimp-and-kale-pitas.html'
p557
sg9
S'[* 1/2 cup plain low-fat yogurt, * 3 tablespoons extra-virgin olive oil, * juice of 1 lemon, * 1 small clove garlic, finely grated, * kosher salt, * 1/8 teaspoon cayenne pepper, * 1 small bunch kale, stems removed and leaves thinly sliced, * 3/4 pound medium shrimp, peeled and deveined, * 1 15 -ounce can no-salt-added chickpeas, drained and rinsed, * 1 pint grape tomatoes, halved, * 1/2 small red onion, thinly sliced, * 4 pieces pita bread, halved]'
p558
sbag2
(g3
g4
NtRp559
(dp560
g7
S'http://www.foodnetwork.com/recipes/food-network-kitchens/skillet-orzo-with-tuna.html'
p561
sg9
S'[* 2 tablespoons extra-virgin olive oil, * 1 clove garlic, thinly sliced, * 4 scallions, thinly sliced, * 1 14 -ounce can no-salt-added diced tomatoes, * 1/4 teaspoon dried oregano, * 1 1/2 cups orzo, * kosher salt and freshly ground pepper, * 1 14 -ounce can cannellini beans, drained and rinsed, * 1 small green bell pepper, thinly sliced, * 1 5 -ounce can solid white tuna packed in water, drained, * juice of 1 lemon, * 2 tablespoons chopped fresh parsley]'
p562
sbag2
(g3
g4
NtRp563
(dp564
g7
S'http://www.foodnetwork.com/recipes/rachael-ray/parmesan-crusted-chicken-breasts-with-tomato-and-basil-and-potatoes-with-peppers-and-onions-recipe.html'
p565
sg9
S'[* 1 1/2 to 2 pounds fingerling potatoes or red skin baby potatoes, * 1 small red bell pepper, seeded and cut into thin strips, * 1 italian mild green pepper, cubanelle, seeded and thinly sliced, * 1 medium yellow skinned onion, thinly sliced, * 4 large cloves garlic, cracked away from skin, * 1 teaspoon crushed red pepper flakes, * 1/4 cup tablespoons extra-virgin olive oil, divided, * coarse salt and pepper, * 2 cups shredded parmesan, available in tubs near deli -- make sure to get shredded cheese, not grated, * 4 (6 to 8-ounce) boneless, skinless chicken breasts, * 4 plum roma tomatoes or small, vine ripe tomatoes, seeded and chopped, * 15 to 20 leaves fresh basil, pile leaves, roll then thinly slice -- chiffonade]'
p566
sbag2
(g3
g4
NtRp567
(dp568
g7
S'http://www.foodnetwork.com/recipes/tyler-florence/chicken-stir-fry-recipe.html'
p569
sg9
S'[* 2 tablespoons dark sesame oil, divided, * 2 garlic cloves, finely minced, * 2 pounds chicken breasts, skinless and boneless, * 1 head broccoli, stems removed, * 1 dozen mushrooms, sliced, * 3 carrots, peeled and julienned, * 1/4 pound green beans, diced, * 1 head bok choy, chopped, * 2 to 3 tablespoons teriyaki sauce]'
p570
sbag2
(g3
g4
NtRp571
(dp572
g7
S'http://www.foodnetwork.com/recipes/food-network-kitchens/gnocchi-with-bacon-and-escarole.html'
p573
sg9
S'[* 3 tablespoons extra-virgin olive oil, * 2 slices thick-cut bacon, cut into 1/4-inch pieces, * 1/2 onion, chopped, * 1 small head escarole, roughly chopped, * kosher salt and freshly ground pepper, * 1 17 .5-ounce package potato gnocchi, * 1 1/2 cups cherry tomatoes, halved, * 1/2 cup grated parmesan cheese (about 1 ounce), * 2 tablespoons chopped fresh parsley]'
p574
sbag2
(g3
g4
NtRp575
(dp576
g7
S'http://www.foodnetwork.com/recipes/food-network-kitchens/turkey-sausage-tacos.html'
p577
sg9
S'[* 2 tablespoons extra-virgin olive oil, * 1 carrot, grated, * 3 scallions, chopped (white and green parts separated), * 1 to 2 teaspoons ancho chile powder, plus more for sprinkling, * 1 pint cherry tomatoes, quartered, * 1 1/4 pounds turkey sausage, casings removed, * 12 hard taco shells, * 1 mango, cubed, * juice of 1 lime, * 1/4 head romaine lettuce, shredded, * 1 cup shredded cheddar cheese (about 4 ounces)]'
p578
sbag2
(g3
g4
NtRp579
(dp580
g7
S'http://www.foodnetwork.com/recipes/food-network-kitchens/glazed-salmon-with-spiced-carrots-recipe.html'
p581
sg9
S'[* 4 tablespoons extra-virgin olive oil, plus more for the pan, * 1 pound carrots, thinly sliced, * 2 tablespoons honey or agave nectar, * 1 tablespoon dijon mustard, * 2 tablespoons fresh lime juice, plus lime wedges for serving, * 4 6 -ounce center-cut salmon fillets (about 1 1/2 inches thick), * kosher salt and freshly ground pepper, * 1/2 teaspoon ground coriander, * 1/4 teaspoon ground cumin, * pinch of ground cinnamon, * 1/3 cup roughly chopped fresh mint, * 1/4 cup sliced almonds]'
p582
sbag2
(g3
g4
NtRp583
(dp584
g7
S'http://www.foodnetwork.com/recipes/food-network-kitchens/white-clam-pizza-recipe.html'
p585
sg9
S'[* 3 large cloves garlic, chopped, * 1/4 cup extra-virgin olive oil, plus more for drizzling, * 1 pound refrigerated pizza dough, * all-purpose flour, for kneading, * cornmeal, for dusting, * kosher salt, * 1/2 cup thinly sliced mozzarella cheese (4 ounces), * 2 6 .5-ounce cans chopped clams, juice drained and reserved, * 1/4 teaspoon dried oregano, * 2 tablespoons grated parmesan cheese, * 2 cups baby arugula, * juice of 1 lemon, * red pepper flakes, for garnish (optional)]'
p586
sbag2
(g3
g4
NtRp587
(dp588
g7
S'http://www.foodnetwork.com/recipes/food-network-kitchens/almost-famous-chicken-lettuce-wraps-recipe.html'
p589
sg9
S'[* 1 large egg white, * 1 tablespoon cornstarch, * 1 tablespoon chinese rice wine or dry sherry, * 1 1/2 pounds skinless, boneless chicken breasts, diced, * 2 tablespoons oyster sauce, * 1 tablespoon hoisin sauce, * 1 tablespoon low-sodium soy sauce, * 1 tablespoon chinese rice wine or dry sherry, * 1 teaspoon toasted sesame oil, * 2 teaspoons cornstarch, * 2 bundles cellophane noodles, * peanut oil, for frying, * 4 tablespoons peanut oil, * 3 cloves garlic, minced, * 1 teaspoon minced peeled ginger, * 1 jalapeno pepper, seeded and minced, * 4 scallions; 2 minced, 2 cut into 1-inch pieces, * kosher salt, * 1/4 teaspoon sugar, * 1/2 pound shiitake mushrooms,stemmed and diced, * 3/4 cup diced water chestnuts, * small lettuce leaves, for serving, * soy sauce, chili paste and/or hot mustard, for serving]'
p590
sbag2
(g3
g4
NtRp591
(dp592
g7
S'http://www.foodnetwork.com/recipes/guy-fieri/kobe-sliders-recipe.html'
p593
sg9
S'[* 2 tablespoons extra-virgin olive oil, * 2 jumbo sweet onions, thinly sliced, * 2 tablespoons bourbon, * 3 tablespoons unsalted butter, * 2 tablespoons sugar, * kosher salt and freshly ground pepper, * 2 cups mayonnaise, * 1 tablespoon tequila, * 2 tablespoons fresh lime juice, * 3 tablespoons pickled jalapenos, * 1/4 cup chopped fresh cilantro, * kosher salt and freshly ground pepper, * 3 pounds ground kobe beef, * vegetable oil, for the grill, * 1 teaspoon garlic salt, * sea salt and freshly ground pepper, * 12 mini burger buns, * unsalted butter, softened, for brushing, * 12 lime wedges]'
p594
sbag2
(g3
g4
NtRp595
(dp596
g7
S'http://www.foodnetwork.com/recipes/rachael-ray/buffalo-chicken-salad-recipe.html'
p597
sg9
S'[* 2 hearts romaine lettuce, chopped, * 1 cup shredded carrots, available in pouches, * 2 ribs celery with greens, chopped, * 1/2 cup ranch dressing, * 1/2 cup blue cheese crumbles, * 1 package, 3/4 to 1 pound, chicken tenders, cut into bite size pieces, * 1 tablespoon vegetable oil, 1 turn of the pan, * 2 tablespoons butter, * salt and black pepper, * 1/4 cup hot sauce]'
p598
sbag2
(g3
g4
NtRp599
(dp600
g7
S'http://www.foodnetwork.com/recipes/guy-fieri/grilled-chicken-tortilla-soup-with-tequila-crema-recipe.html'
p601
sg9
S'[* 2 tablespoons olive oil, * 2 ounces silver tequila, * 2 limes, juiced, * 1 chipotle pepper in adobo sauce, * 1 tablespoon ground cumin, * 1 tablespoon chili powder, * 4 cloves garlic, * 1 teaspoon mexican oregano, * 1 teaspoon salt, * 1 teaspoon freshly cracked black pepper, * 4 chicken thighs, bone-in, skin removed, * 1 jalapeno, roasted and minced, * 2 tablespoons vegetable oil, * 1 yellow onion, diced, * 4 cloves garlic, minced, * 1 teaspoon chili powder, plus some for dust tortilla strips, * 1 teaspoon ground cumin, * salt and freshly ground black pepper, * 8 cups chicken stock, make sure this is stock, not broth (recommended: kitchen essentials), * 1 (14.5-ounce) can crushed fire roasted tomatoes (recommended: muir glen), * 1 lime, zested and juiced, * 1 corn tortilla, cut into strips, * 2 1/2 cups vegetable oil, for frying, * 8 corn tortillas, cut into strips, * 1 teaspoon salt, plus more for seasoning, * pinch chili powder, * 3/4 cup sour cream, * 2 tablespoons tequila, * 1 teaspoon freshly cracked black pepper, * 1 hass avocado, halved, pitted and flesh diced, * 1/2 bunch cilantro, leaves roughly chopped, * lime wedges, for garnish]'
p602
sbag2
(g3
g4
NtRp603
(dp604
g7
S'http://www.foodnetwork.com/recipes/food-network-kitchens/chinese-beef-with-broccoli-recipe.html'
p605
sg9
S'[* 2 tablespoons cornstarch, * 4 tablespoons soy sauce, * 2 teaspoons sugar, * 5 tablespoons peanut oil, * 1 pound flank steak, thinly sliced against the grain, * 1 tablespoon oyster sauce, * 1 1/4 cups low-sodium chicken broth, * 4 thin slices peeled ginger, * 1 head broccoli, cut into florets, * 1 large onion, halved and sliced 1/2 inch thick, * 3 plum tomatoes, quartered lengthwise, * 2 cloves garlic, minced, * cooked white rice, for serving (optional)]'
p606
sbag2
(g3
g4
NtRp607
(dp608
g7
S'http://www.foodnetwork.com/recipes/guy-fieri/chicken-avocado-egg-rolls-recipe.html'
p609
sg9
S'[* 2 tablespoons canola oil, * 1/2 cup finely minced red onion, * 1/4 cup finely minced red bell peppers, * 2 tablespoons minced ginger, * 1 tablespoon minced garlic, * 1/4 cup sliced bamboo shoots, * 1/4 cup finely chopped celery, * 2 cups chopped chicken breast, * 1/4 cup soy sauce, * 1 cup julienned green cabbage, * 1/2 cup shredded carrots, * 4 cups rice bran oil or canola oil, * 12 egg roll wrappers, * 2 avocados, sliced into 24 pieces, * 1 egg mixed with 1 tablespoon milk, * jarred sweet chili sauce, for dipping]'
p610
sbag2
(g3
g4
NtRp611
(dp612
g7
S'http://www.foodnetwork.com/recipes/tyler-florence/chicken-parmesan-recipe.html'
p613
sg9
S'[* 1/4 cup extra-virgin olive oil, plus 3 tablespoons, * 1 medium onion, chopped, * 2 garlic cloves, minced, * 2 bay leaves, * 1/2 cup kalamata olives, pitted, * 1/2 bunch fresh basil leaves, * 2 (28-ounce) cans whole peeled tomatoes, drained and hand-crushed, * pinch sugar, * kosher salt and freshly ground black pepper, * 4 skinless, boneless, chicken breasts (about 11/2 pounds), * 1/2 cup all-purpose flour, * 2 large eggs, lightly beaten, * 1 tablespoon water, * 1 cup dried bread crumbs, * 1 (8-ounce) ball fresh buffalo mozzarella, water drained, * freshly grated parmesan, * 1 pound spaghetti pasta, cooked al dente]'
p614
sbag2
(g3
g4
NtRp615
(dp616
g7
S'http://www.foodnetwork.com/recipes/food-network-kitchens/general-tsos-chicken-recipe.html'
p617
sg9
S'[* 1 pound boneless skinless chicken breasts, cut into 1- by 4-inch strips, * 1 egg white, lightly beaten, * kosher salt, * 1 tablespoon vegetable oil, * 2 ounces crispy rice cereal, such as rice chex, finely ground (rounded 1/2 cup), * nonstick cooking spray, * 2 cloves garlic, cracked, * 2 ginger coins, cracked, * 2 dried red chiles, broken in half, * 3/4 cup low-sodium chicken broth, * 2 1/2 tablespoons reduced-sodium soy sauce, * 2 tablespoons agave syrup, * 2 teaspoons distilled white vinegar, * 2 teaspoons cornstarch, * 4 cups broccoli florets (about 10 ounces), * 4 cups cooked brown rice, for serving, * 2 scallions, thinly sliced]'
p618
sbag2
(g3
g4
NtRp619
(dp620
g7
S'http://www.foodnetwork.com/recipes/food-network-kitchens/spanish-style-noodles-with-chicken-and-sausage-recipe.html'
p621
sg9
S'[* 3/4 pound skinless, boneless chicken thighs, cut into 1/2-inch chunks, * 1/2 pound sweet or hot italian sausage, cut into 1/2-inch chunks, * kosher salt and freshly ground pepper, * 1 teaspoon dried marjoram or oregano, * 1/3 cup extra-virgin olive oil, * 2 medium onions, diced, * 3 cloves garlic, chopped, * 2 bay leaves, * 3/4 cup tomato puree, * 12 ounces spaghetti, broken into 3-inch pieces, * grated manchego or parmesan cheese, for garnish (optional)]'
p622
sbag2
(g3
g4
NtRp623
(dp624
g7
S'http://www.foodnetwork.com/recipes/rachael-ray/sausage-kale-and-lentil-soup-recipe.html'
p625
sg9
S'[* 1 tablespoon extra-virgin olive oil, * 1 pound hot sausage, bulk or casing removed, * 1 onion, chopped, * 2 ribs celery, chopped, leafy tops reserved, * 1 large carrot, peeled and chopped, * 1 large idaho (russet) potato, peeled and chopped into small dice, * 1 fresno or holland chile pepper, thinly sliced or finely chopped, * 2 sprigs fresh rosemary, leaves picked and finely chopped, * 2 large cloves garlic, chopped or sliced, * 1/2 tablespoon ground cumin, * kosher salt and freshly ground black pepper, * 1 bundle tuscan, black, or dinosaur kale, stemmed and very thinly sliced, * 1/4 cup tomato paste, * 1 cup white wine, * freshly grated nutmeg, * 1 3/4 cups lentils, * 4 cups chicken stock, * 2 cups water]'
p626
sbag2
(g3
g4
NtRp627
(dp628
g7
S'http://www.foodnetwork.com/recipes/tyler-florence/beef-stroganoff-with-buttered-noodles-recipe.html'
p629
sg9
S'[* 4 cloves garlic, roughly chopped, plus 2 cloves, minced, * kosher salt and freshly ground black pepper, * extra-virgin olive oil, * 1 sprig fresh rosemary, leaves removed, * 1 large sprig fresh thyme, leaves removed, * 3 pounds beef short ribs, cut into 2 ribs apiece, * 1 1/2 pounds cremini mushrooms, * 1 1/2 pounds white button mushrooms, * 1/2 cup chopped shallots, * 1/4 cup cognac, * 2 cups heavy whipping cream, * 1 tablespoon dijon mustard, * 1/2 cup sour cream, * 1 pound egg noodles, * 3 tablespoons unsalted butter, * 2 tablespoons freshly chopped flat-leaf parsley, * 2 tablespoons freshly chopped green onions]'
p630
sbag2
(g3
g4
NtRp631
(dp632
g7
S'http://www.foodnetwork.com/recipes/giada-de-laurentiis/chicken-carbonara-recipe.html'
p633
sg9
S'[* 2 teaspoons olive oil, * 4 ounces thinly sliced pancetta, chopped, * 2 teaspoons minced garlic, * 2 1/2 cups whipping cream, * 1 cup freshly grated parmesan, * 8 large egg yolks, * 1/4 cup chopped fresh basil leaves, * 1/4 cup chopped fresh italian parsley leaves, * salt, * 1 pound spaghetti, * 4 cups coarsely shredded chicken (from 1 roasted chicken), * freshly ground black pepper, * 1/2 cup chopped walnuts, toasted, * 1 tablespoon finely grated lemon peel]'
p634
sbag2
(g3
g4
NtRp635
(dp636
g7
S'http://www.foodnetwork.com/recipes/ree-drummond/pan-fried-pork-chops-recipe.html'
p637
sg9
S'[* 1 teaspoon seasoned salt, plus more for seasoning, * 1 teaspoon ground black pepper, plus more for seasoning, * 8 pork breakfast chops, * 1 cup all-purpose flour, * cayenne pepper, * 1/2 cup canola oil, * 1 tablespoon butter, * smashed new potatoes, for serving]'
p638
sbag2
(g3
g4
NtRp639
(dp640
g7
S'http://www.foodnetwork.com/recipes/food-network-kitchens/beef-stroganoff-recipe.html'
p641
sg9
S'[* 2 tablespoons vegetable oil, * 1 pound beef sirloin, cut into 2x1x1/8-inch strips, * kosher salt and freshly ground black pepper, * 6 tablespoons unsalted butter, * 12 ounces button mushrooms, quartered, * 1 medium yellow onion, thinly sliced, * 1 tablespoon tomato paste, * 2 tablespoons all-purpose flour, * 2 cups beef broth, homemade or low-sodium canned, * 1/4 cup sour cream, * 2 teaspoons dijon mustard, * 2 teaspoons freshly squeezed lemon juice, * 1 tablespoon chopped flat-leaf parsley leaves, * kosher salt, * one 12-ounce package wide egg noodles, * 2 tablespoons unsalted butter, * freshly ground black pepper]'
p642
sbag2
(g3
g4
NtRp643
(dp644
g7
S'http://www.foodnetwork.com/recipes/food-network-kitchens/spaghetti-carbonara-recipe.html'
p645
sg9
S'[* kosher salt, * 6 slices thick-cut bacon, cut into 1/2-inch pieces, * 2 tablespoons extra-virgin olive oil, * 3 cloves garlic, crushed, * 1/2 teaspoon minced fresh rosemary, * 2 red jalapeno peppers, seeded and minced, * 1/4 cup cognac or brandy (optional), * 12 ounces spaghetti, * 3 large eggs, * 3/4 cup freshly grated parmesan cheese, plus more for garnish, * 1/2 cup freshly grated pecorino romano cheese, * 2 tablespoons chopped fresh parsley, * freshly ground pepper]'
p646
sbag2
(g3
g4
NtRp647
(dp648
g7
S'http://www.foodnetwork.com/recipes/ree-drummond/chicken-fried-steak-with-gravy-recipe.html'
p649
sg9
S"[* 1 1/2 cups whole milk, * 2 large eggs, * 2 cups all-purpose flour, * 2 teaspoons seasoned salt, * freshly ground black pepper, * 3/4 teaspoon paprika, * 1/4 teaspoon cayenne pepper, * 3 pounds cube steak (tenderized round steak that's been extra tenderized), * kosher salt, * 1/2 cup canola or vegetable oil, * 1 tablespoon butter, * 1/3 cup all-purpose flour, * 3 to 4 cups whole milk, * 1/2 teaspoon seasoned salt, * freshly ground black pepper, * mashed potatoes, for serving]"
p650
sbag2
(g3
g4
NtRp651
(dp652
g7
S'http://www.foodnetwork.com/recipes/bobby-flay/shrimp-and-grits-recipe.html'
p653
sg9
S'[* 4 cups water, * salt and pepper, * 1 cup stone-ground grits, * 3 tablespoons butter, * 2 cups shredded sharp cheddar cheese, * 1 pound shrimp, peeled and deveined, * 6 slices bacon, chopped, * 4 teaspoons lemon juice, * 2 tablespoons chopped parsley, * 1 cup thinly sliced scallions, * 1 large clove garlic, minced]'
p654
sbag2
(g3
g4
NtRp655
(dp656
g7
S'http://www.foodnetwork.com/recipes/food-network-kitchens/patty-melts-recipe.html'
p657
sg9
S'[* 3 tablespoons extra-virgin olive oil, * 2 medium onions, thinly sliced, * 10 ounces button mushrooms, sliced, * kosher salt and freshly ground pepper, * 2 teaspoons balsamic vinegar, * 2 tablespoons plus 2 teaspoons worcestershire sauce, * 10 ounces 93% lean ground turkey, * 6 ounces lean ground beef sirloin, * 8 slices multigrain bread, * 8 thin slices monterey jack or swiss cheese (2 to 3 ounces)]'
p658
sbag2
(g3
g4
NtRp659
(dp660
g7
S'http://www.foodnetwork.com/recipes/claire-robinson/beef-stroganoff-recipe.html'
p661
sg9
S'[* 2 pounds top sirloin roast, trimmed, * kosher salt and fresh cracked black pepper, * 3 tablespoons garlic infused olive oil, * 1 onion, chopped, * 2 cups good quality beef stock, * 1 1/2 cups sour cream]'
p662
sbag2
(g3
g4
NtRp663
(dp664
g7
S'http://www.foodnetwork.com/recipes/amy-thielen/peppered-pork-and-parmesan-flatbread-sandwiches.html'
p665
sg9
S'[* 3/4 teaspoon active dry yeast, * pinch of sugar, * 3 tablespoons extra-virgin olive oil, plus more for oiling, * 1 1/2 teaspoons salt, * 3 1/4 cups bread flour, * 1/2 teaspoon sugar, * fine sea salt, * one 3 1/2-pound pork loin roast, fat cap left on, * 3 tablespoons black peppercorns, * 5 tablespoons butter, * 6 cloves garlic, finely grated, * 3 tablespoons apple cider vinegar, * 2 tablespoons chopped fresh thyme, * 2 tablespoons canola oil, * 1 cup mayonnaise, such as kraft homestyle, * 6 tablespoons extra-virgin olive oil, * pinch of salt, * 1/2 teaspoon freshly ground black pepper, * 1 clove garlic, finely grated, * zest and juice of 1 lemon (2 tablespoons juice), * 3 ounces parmesan, shaved thinly, * 2 cups arugula]'
p666
sbag2
(g3
g4
NtRp667
(dp668
g7
S'http://www.foodnetwork.com/recipes/amy-thielen/oven-baked-short-ribs-with-porter-beer-mop.html'
p669
sg9
S'[* 6 pounds beef short ribs, on the bone, * 1 teaspoon salt, * 1 teaspoon ground black pepper, * 1 teaspoon dried thyme, * 4 dried red chiles, * 1 -inch knob fresh ginger root, smashed, * 1/2 to 1 fresh serrano chile (depending on desired heat), stem discarded, * 1/2 medium sweet onion, cubed, * 4 inches fresh ginger root, peeled and sliced, * 1 teaspoon salt, * 2 tablespoons butter, * 1 bottle dark porter beer, * 1/4 cup molasses, * 1/4 cup brown sugar, * 2 tablespoons maple syrup, * 2 tablespoons minced fresh cilantro, stems too, * zest and juice of 1 lime (2 teaspoons zest, 2 tablespoons juice)]'
p670
sbag2
(g3
g4
NtRp671
(dp672
g7
S'http://www.foodnetwork.com/recipes/amy-thielen/roast-chicken-with-green-herb-stuffing.html'
p673
sg9
S'[* one 4 1/2-pound chicken with giblets (2 pieces liver and 1 gizzard, well-trimmed), * canola oil, for oiling pan and chicken, * 1 1/4 cups coarse breadcrumbs from a day-old country loaf, white or wheat, * fine sea salt and freshly ground black pepper, * 8 tablespoons cold salted butter, * 2 tablespoons white wine, * 3 ounces fresh pork sausage, * 1 1/2 large onions, finely diced, * 1 tablespoon minced fresh sage, * 3 cloves garlic, minced, * 1 1/2 cups chopped swiss chard (about 1/2 bunch), * 1/3 cup chopped chives, * zest of 1/2 lemon]'
p674
sbag2
(g3
g4
NtRp675
(dp676
g7
S'http://www.foodnetwork.com/recipes/food-network-kitchens/green-smoothie.html'
p677
sg9
S'[* 1 cup chopped fresh pineapple, plus a pineapple wedge for garnish, * 1 cup packed chopped kale (stems removed), * 1 cup frozen green grapes, * 1 tablespoon fresh lemon juice, * 1 teaspoon finely grated fresh ginger, * 1 teaspoon ground flaxseed]'
p678
sbag2
(g3
g4
NtRp679
(dp680
g7
S'http://www.foodnetwork.com/recipes/food-network-kitchens/red-berry-and-beet-smoothie.html'
p681
sg9
S'[* 2 cups mixed frozen red berries such as strawberries and raspberries, * 1 small red beet, peeled and thinly sliced, * 1 tablespoon fresh lemon juice, * 1 tablespoon honey, * 2 teaspoons unrefined extra-virgin coconut oil]'
p682
sbag2
(g3
g4
NtRp683
(dp684
g7
S'http://www.foodnetwork.com/recipes/food-network-kitchens/carrot-pineapple-smoothie.html'
p685
sg9
S'[* 1 cup carrot juice, * 1/2 cup packed fresh chopped pineapple (about 4 ounces), * 1/4 cup lowfat buttermilk, * 2 medjool dates, halved and pitted, * pinch ground cinnamon]'
p686
sbag2
(g3
g4
NtRp687
(dp688
g7
S'http://www.foodnetwork.com/recipes/food-network-kitchens/mango-coconut-and-chia-smoothie.html'
p689
sg9
S'[* 1 teaspoon chia seeds, * 1/2 cup light coconut milk, * 1/2 cup chopped peeled ripe mango (about 1/4 mango), * 1 tablespoon honey, optional, * 1 teaspoon fresh lime juice, * 3/4 cup ice cubes]'
p690
sbag2
(g3
g4
NtRp691
(dp692
g7
S'http://www.foodnetwork.com/recipes/food-network-kitchens/peachy-oat-smoothie.html'
p693
sg9
S'[* 3 tablespoons quick-cooking rolled oats, * 1/4 cup hot water, * 2 small, ripe yellow peaches, peeled, pitted and roughly chopped, plus one wedge reserved for garnish, * 3/4 cup ice cubes, * 1/3 cup lowfat vanilla yogurt, * 1 tablespoon honey, * pinch ground cinnamon]'
p694
sbag2
(g3
g4
NtRp695
(dp696
g7
S'http://www.foodnetwork.com/recipes/food-network-kitchens/blueberry-almond-smoothie.html'
p697
sg9
S'[* 1 cup blueberries, plus more for garnish, * 2 tablespoons roasted, salted almonds, * 1 tablespoon honey, * 3/4 cup ice cubes, * 1/4 cup unsweetened almond milk]'
p698
sbag2
(g3
g4
NtRp699
(dp700
g7
S'http://www.foodnetwork.com/recipes/food-network-kitchens/watermelon-and-cucumber-smoothie.html'
p701
sg9
S'[* one 2-inch piece english cucumber, peeled and roughly chopped (about 1/2 cup), plus one slice reserved for garnish, * 3 tablespoons lowfat buttermilk, * 1 tablespoon honey, optional, * 1/2 small lime, juiced (about 1 tablespoon), * 2 cups cubed seedless watermelon, frozen]'
p702
sbag2
(g3
g4
NtRp703
(dp704
g7
S'http://www.foodnetwork.com/recipes/food-network-kitchens/apple-nut-smoothie.html'
p705
sg9
S'[* 1 gala or pink lady apple, cored and cut into chunks, * 1/4 cup nonfat plain yogurt, * 2 tablespoons roasted, salted peanuts, * 1 tablespoon honey, * 3/4 cup ice cubes]'
p706
sbag2
(g3
g4
NtRp707
(dp708
g7
S'http://www.foodnetwork.com/recipes/food-network-kitchens/pumpkin-ginger-smoothie.html'
p709
sg9
S'[* 1/2 cup pure pumpkin puree, * 1/2 cup lowfat plain yogurt, * 3/4 cup ice cubes, * 2 tablespoons pure maple syrup, * 1 tablespoon apple cider vinegar, * 1/2 -inch piece fresh ginger, peeled and grated, * pinch ground cinnamon, plus more for garnish]'
p710
sbag2
(g3
g4
NtRp711
(dp712
g7
S'http://www.foodnetwork.com/recipes/food-network-kitchens/cran-sicle-smoothie.html'
p713
sg9
S'[* 1/2 cup frozen cranberries, plus one thinly sliced cranberry for garnish, * 3/4 cup ice cubes, * 1/3 cup lowfat vanilla yogurt, * 1/4 cup orange juice, * 1 to 2 tablespoons pure maple syrup, * 1 tablespoon toasted wheat germ]'
p714
sbag2
(g3
g4
NtRp715
(dp716
g7
S'http://www.foodnetwork.com/recipes/food-network-kitchens/banana-nog-smoothie.html'
p717
sg9
S'[* 1/2 firm (slightly under-ripe) medium banana, * 1/3 cup lowfat plain yogurt, * 3 medjool dates, halved and pitted, * large pinch freshly grated nutmeg, * 1 cup ice cubes]'
p718
sbag2
(g3
g4
NtRp719
(dp720
g7
S'http://www.foodnetwork.com/recipes/sandra-lee/honeydew-smoothie-recipe.html'
p721
sg9
S'[* 2 cups honeydew melon, cubed, * 1 cup vanilla low-fat yogurt, * 2 tablespoons apple juice, from frozen concentrate, * ice, * honeydew melon slices, for garnish]'
p722
sbag2
(g3
g4
NtRp723
(dp724
g7
S'http://www.foodnetwork.com/recipes/dave-lieberman/triple-berry-banana-yogurt-smoothie-recipe.html'
p725
sg9
S'[* 8 ounces frozen mixed berries, * 2 small bananas, cut into 2-inch pieces and frozen, * 6 ounces vanilla yogurt, preferably whole milk, * 1 cup whole milk, * 1 to 2 tablespoons honey]'
p726
sbag2
(g3
g4
NtRp727
(dp728
g7
S'http://www.foodnetwork.com/recipes/anne-burrell/mango-strawberry-and-pineapple-smoothie-recipe.html'
p729
sg9
S'[* 1 mango, skin removed, cut into 1-inch dice, frozen, * 5 strawberries, stems removed, cut half, frozen, * 1 cup diced pineapple, * 1 cup orange juice]'
p730
sbag2
(g3
g4
NtRp731
(dp732
g7
S'http://www.foodnetwork.com/recipes/ina-garten/tropical-smoothie-recipe.html'
p733
sg9
S'[* 1/2 ripe mango, peeled and seeded, * 1/2 ripe papaya, peeled and seeded, * 1 ripe banana, * 1/4 cup freshly squeezed orange juice, * 1/2 cup skim milk, * 1/4 cup nonfat yogurt, * 1 teaspoon good honey, * 2 cups ice]'
p734
sbag2
(g3
g4
NtRp735
(dp736
g7
S'http://www.foodnetwork.com/recipes/ina-garten/orange-banana-smoothie-recipe.html'
p737
sg9
S'[* 1 1/2 cups freshly squeezed orange juice (4 oranges), * 1 tablespoon freshly squeezed lime juice, * 1 cup strawberries, tops removed, and cut in 1/2, * 1 to 1 1/2 ripe bananas]'
p738
sbag2
(g3
g4
NtRp739
(dp740
g7
S'http://www.foodnetwork.com/recipes/bobby-flay/papaya-banana-smoothie-recipe.html'
p741
sg9
S'[* 1 cup milk, * 1/4 cup greek yogurt, * 1 teaspoon pure vanilla extract, * 1 small ripe banana, peeled and sliced, * 1/2 large, ripe papaya, peeled, seeded and chopped, * 1 cup ice cubes]'
p742
sbag2
(g3
g4
NtRp743
(dp744
g7
S'http://www.foodnetwork.com/recipes/ellie-krieger/peanut-butter-split-smoothie-recipe.html'
p745
sg9
S'[* 1 ripe banana, quartered and frozen, * 1/2 cup nonfat milk, * 1/4 cup plain nonfat yogurt, * 1 1/2 tablespoons creamy, natural, peanut butter]'
p746
sbag2
(g3
g4
NtRp747
(dp748
g7
S'http://www.foodnetwork.com/recipes/giada-de-laurentiis/raspberry-vanilla-smoothie-recipe.html'
p749
sg9
S'[* 1/2 cup sugar, * 1/2 cup water, * 1 cup plain greek yogurt, * 1 cup frozen raspberries, * 1/2 cup apple juice or cider, * 1 teaspoon vanilla extract, * 2 cups ice]'
p750
sbag2
(g3
g4
NtRp751
(dp752
g7
S'http://www.foodnetwork.com/recipes/ellie-krieger/peach-pie-smoothie-recipe.html'
p753
sg9
S'[* 1/2 cup nonfat or 1 percent lowfat milk, * 1/2 cup nonfat plain yogurt, * 1 cup unsweetened frozen peaches, * 1 tablespoon honey, plus more to taste, * 1/4 teaspoon vanilla extract, * 1/8 teaspoon ground cinnamon, * pinch ground nutmeg, * pinch ground ginger]'
p754
sbag2
(g3
g4
NtRp755
(dp756
g7
S'http://www.foodnetwork.com/recipes/michael-chiarello/fresh-fruit-smoothie-recipe.html'
p757
sg9
S'[* 1/2 cup soy milk (or other milk), * 1/2 cup white grape juice, * 1 cup strawberries, stemmed, * 1/2 cup pineapple chunks, * 1/2 lemon, squeezed (for tartness if desired), * 1/4 teaspoon vitamin c powder (1 capsule), * pinch salt, preferable grey salt, * small handful fresh seedless grapes]'
p758
sbag2
(g3
g4
NtRp759
(dp760
g7
S'http://www.foodnetwork.com/recipes/ina-garten/sunrise-smoothie-recipe.html'
p761
sg9
S'[* 1 cup chopped ripe strawberries (5 large strawberries), * 1 cup chopped seeded watermelon, * 1 cup chopped fresh peach, * 1 cup raspberry sorbet, * 1/4 cup freshly squeezed orange juice]'
p762
sbag2
(g3
g4
NtRp763
(dp764
g7
S'http://www.foodnetwork.com/recipes/jeff-mauro/power-smoothie.html'
p765
sg9
S'[* 1 1/4 cups unsweetened almond milk, * 1 cup loosely packed kale, * 2 tablespoons powdered peanut butter, such as pb2, * 1 scoop protein powder, * 1 ripe banana, * 1 cup ice]'
p766
sbag2
(g3
g4
NtRp767
(dp768
g7
S'http://www.foodnetwork.com/recipes/ellie-krieger/blueberry-blast-smoothie-recipe.html'
p769
sg9
S'[* 1/2 cup nonfat or 1 percent lowfat milk, * 1/2 cup non fat plain yogurt, * 1 cup frozen blueberries (unsweetened), * 1 teaspoon honey]'
p770
sbag2
(g3
g4
NtRp771
(dp772
g7
S'http://www.foodnetwork.com/recipes/giada-de-laurentiis/kale-juice.html'
p773
sg9
S'[* 1 1/2 pounds kale, * 2 medium carrots, scrubbed, * 2 medium apples (such as fuji or honeycrisp), halved and cored, * 1 small lemon, peeled]'
p774
sbag2
(g3
g4
NtRp775
(dp776
g7
S'http://www.foodnetwork.com/recipes/food-network-kitchens/peanut-butter-chocolate-pie.html'
p777
sg9
S"[* 4 tablespoons unsalted butter, melted, plus more for the pie plate, * 9 whole graham crackers (1 sleeve), roughly broken, * 1/4 cup cocktail peanuts, * 1/2 cup mini chocolate chips, * 1/4 cup cold heavy cream, * 1 cup creamy peanut butter (not natural), * 8 ounces cream cheese, at room temperature, * 1/3 cup whole milk, * 1 teaspoon vanilla extract, * 3/4 cup confectioners' sugar, * shaved chocolate, for topping]"
p778
sbag2
(g3
g4
NtRp779
(dp780
g7
S'http://www.foodnetwork.com/recipes/sunny-anderson/chocoholic-smoothie-with-peppermint-rim-recipe.html'
p781
sg9
S'[* 2 cups chocolate yogurt, * 1 cup ice, * 1 cup milk, * 3 tablespoons chocolate syrup, plus extra for glass, * 3 candy canes, crushed]'
p782
sbag2
(g3
g4
NtRp783
(dp784
g7
S'http://www.foodnetwork.com/recipes/geoffrey-zakarian/katies-kale-smoothie.html'
p785
sg9
S'[* 2 cups kale, * 1 cup grapes, * 1 orange, juiced, * 1/2 pear, cored, * 1/2 banana, sliced]'
p786
sbag2
(g3
g4
NtRp787
(dp788
g7
S'http://www.foodnetwork.com/recipes/bobby-flay/creamed-kale-with-caramelized-shallots-recipe.html'
p789
sg9
S'[* 3 tablespoons unsalted butter, * 3 tablespoons finely chopped spanish onion, * 3 tablespoons all-purpose flour, * 3 cups milk, scalded, * pinch freshly grated nutmeg, * salt and freshly ground pepper, * 3 pounds kale, center stalk removed, and coarsely torn into pieces, * caramelized shallots, recipe follows]'
p790
sbag2
(g3
g4
NtRp791
(dp792
g7
S'http://www.foodnetwork.com/recipes/food-network-kitchens/kale-and-apple-salad-recipe.html'
p793
sg9
S'[* 3 tablespoons fresh lemon juice, * 2 tablespoons extra-virgin olive oil, * kosher salt, * 1 bunch kale, ribs removed, leaves very thinly sliced, * 1/4 cup dates, * 1 honeycrisp apple, * 1/4 cup slivered almonds, toasted, * 1 ounce pecorino, finely grated (1/4 cup), * freshly ground black pepper]'
p794
sbag2
(g3
g4
NtRp795
(dp796
g7
S'http://www.foodnetwork.com/recipes/rachael-ray/smothered-mushrooms-and-kale-recipe.html'
p797
sg9
S'[* 2 tablespoons extra-virgin olive oil, 2 turns of the pan, * 2 tablespoons butter, cut into small pieces, * 4 cloves garlic, chopped, * 24 small crimini mushrooms, wiped clean, halved, * 1 bunch kale, trimmed, stems removed and chopped, * 1/4 cup marsala or other sherry, * salt and pepper]'
p798
sbag2
(g3
g4
NtRp799
(dp800
g7
S'http://www.foodnetwork.com/recipes/melissa-darabian/kale-slaw-recipe.html'
p801
sg9
S'[* 1 head kale, stems removed and thinly sliced, * 1 large carrot, grated, * 1/2 an orange, juiced, * 1/2 a lemon, juiced, * salt and freshly ground black pepper, * 1 tablespoon olive oil, * 1/2 red onion, sliced very thinly, * 1 slice bacon, cooked crisp and chopped, * 1 rounded tablespoon mayonnaise]'
p802
sbag2
(g3
g4
NtRp803
(dp804
g7
S'http://www.foodnetwork.com/recipes/sandra-lee/peach-mango-smoothie-recipe.html'
p805
sg9
S'[* 1/2 cup mango nectar (recommended: kerns), * 1 (6-ounce) container nonfat peach yogurt, * 1/2 cup frozen mango chunks (recommended: dole), * 1/2 cup frozen peaches (recommended: dole), * 1/4 block soft silken tofu (recommended: mori-nu), * 1 cup ice, * vanilla vodka, optional]'
p806
sbag2
(g3
g4
NtRp807
(dp808
g7
S'http://www.foodnetwork.com/recipes/food-network-kitchens/chocolate-peanut-butter-pudding-pie-recipe.html'
p809
sg9
S"[* 1/2 cup granulated sugar, * 3 large egg yolks, beaten, * 2 tablespoons cornstarch, * 1/8 teaspoon kosher salt, * 3 cups whole milk, * 1 cup smooth natural peanut butter, * one 9-inch prepared chocolate graham cracker crust, * 1 cup heavy cream, * 2 tablespoons confectioners' sugar, * 2 tablespoons chopped roasted peanuts, for garnish, * 2 tablespoons mini chocolate chips, for garnish]"
p810
sbag2
(g3
g4
NtRp811
(dp812
g7
S'http://www.foodnetwork.com/recipes/alton-brown/buff-smoothie-recipe.html'
p813
sg9
S'[* 4 ounces plain, low-fat soy milk, * 4 ounces acai, grape, or pomegranate juice, * 4 ounces frozen banana, * 4 ounces frozen strawberries, * 4 ounces frozen blueberries, * 4 ounces frozen peaches]'
p814
sbag2
(g3
g4
NtRp815
(dp816
g7
S'http://www.foodnetwork.com/recipes/melissa-darabian/chocolate-and-banana-smoothie-recipe.html'
p817
sg9
S'[* 2 cups chilled sweetened chocolate soy milk, * 1/2 cup baby spinach leaves, * 3/4 cup frozen banana chunks (about 2 medium), peeled, * 1/2 teaspoon vanilla extract, * 1/2 tablespoon milled flax seed, * chocolate syrup, optional]'
p818
sbag2
(g3
g4
NtRp819
(dp820
g7
S'http://www.foodnetwork.com/recipes/guy-fieri/guys-rockin-smoothie-recipe.html'
p821
sg9
S'[* 1 medium banana, peeled, * 1 cup pineapple, peeled and chopped into large chunks, * 1/2 cup frozen or fresh blueberries, * 7 large strawberries, * 1 cup orange juice, * 1/4 cup kefir, * 1 cup plain yogurt, * 2 tablespoons flax seed, * 1 cup ice cubes, * 1/4 cup fresh kale leaves]'
p822
sbag2
(g3
g4
NtRp823
(dp824
g7
S'http://www.foodnetwork.com/recipes/peanut-butter-banana-shake-recipe.html'
p825
sg9
S'[* 1 banana, * ice cubes, * 3 tablespoons smooth peanut butter, * 1 cup skim milk, * 1 drop vanilla, * cinnamon]'
p826
sbag2
(g3
g4
NtRp827
(dp828
g7
S'http://www.foodnetwork.com/recipes/nigella-lawson/go-get-em-smoothie-recipe.html'
p829
sg9
S'[* 1 peeled banana, cut into 4, from the freezer, * 2/3 cup milk, * 1 tablespoon honey, * 4 teaspoons malted chocolate drink powder (recommended: ovaltine), * 1 teaspoon strong coffee or 1/2 teaspoon instant espresso powder]'
p830
sbag2
(g3
g4
NtRp831
(dp832
g7
S'http://www.foodnetwork.com/recipes/paula-deen/vanilla-milkshake-recipe.html'
p833
sg9
S'[* 4 cups quality vanilla ice cream, * 2 teaspoons vanilla extract, * 8 tablespoons sugar, * 2 cups milk, less for thicker milkshakes]'
p834
sbag2
(g3
g4
NtRp835
(dp836
g7
S'http://www.foodnetwork.com/recipes/melissa-darabian/green-morning-smoothie-recipe.html'
p837
sg9
S'[* 2 cups vanilla almond, coconut or soy milk, * 1/2 cup whole oats, * 1 1/4 cups fresh, frozen or canned peaches, or mango cubes, * 1 cup ice cubes, * 1 cup baby spinach, loosely packed, * 1 tablespoon honey, * 1 teaspoon vanilla extract, * 2 bananas]'
p838
sbag2
(g3
g4
NtRp839
(dp840
g7
S'http://www.foodnetwork.com/recipes/ina-garten/banana-raspberry-smoothies-recipe.html'
p841
sg9
S'[* 1/2 pint fresh raspberries, * 1 ripe banana, * 1/4 cup freshly squeezed orange juice, * 1/2 cup skim milk, * 1/4 cup yogurt, greek or regular, * 1 tablespoon good honey, * 2 cups ice]'
p842
sbag2
(g3
g4
NtRp843
(dp844
g7
S'http://www.foodnetwork.com/recipes/cinnamon-roll-milkshake-recipe.html'
p845
sg9
S'[* 4 scoops premium vanilla ice cream, * 1 package instant pudding, prepared according to directions, * 1 cup milk, * 3 heaping spoonfuls caramel ice cream topping, * cinnamon and sugar, recipe follows, * cream cheese icing, recipe follows, * cinnamon stick, * 3 tablespoons sugar, * 2 teaspoons ground cinnamon, * 1 (8-ounce) package cream cheese, * 1 stick butter, * 3 3/4 cups powdered sugar, * 1 teaspoon vanilla extract]'
p846
sbag2
(g3
g4
NtRp847
(dp848
g7
S'http://www.foodnetwork.com/recipes/giada-de-laurentiis/homemade-chai-latte-recipe.html'
p849
sg9
S'[* 1 cup coarsely ground italian roast, french roast or espresso coffee (2 to 2 1/2 ounces), * 1 tablespoon ground cardamom, * 1 tablespoon ground cinnamon, * 1 1/2 teaspoons ground ginger, * 1 teaspoon ground allspice, * 1/2 teaspoon finely grated fresh peeled ginger, * 1/4 teaspoon freshly ground black pepper, * 1/8 teaspoon ground cloves, * large pinch kosher salt, * 4 cups hot (not boiling) water, * 1 1/2 cups nonfat milk, * 1 tablespoon sugar, * 1 teaspoon ground cinnamon, * 1/2 cup sweetened condensed milk]'
p850
sbag2
(g3
g4
NtRp851
(dp852
g7
S'http://www.foodnetwork.com/recipes/robin-miller/chai-tea-smoothies-recipe.html'
p853
sg9
S'[* 2 cups milk, * 1/4 cup unsweetened instant tea, * 1/4 cup nonfat vanilla yogurt, * 1/2 teaspoon ground cinnamon, * 1/2 teaspoon ground ginger, * 1/4 teaspoon ground cardamom, * 1/4 teaspoon ground cloves, * ice cubes, * fresh mint leaves, optional]'
p854
sbag2
(g3
g4
NtRp855
(dp856
g7
S'http://www.foodnetwork.com/recipes/food-network-kitchens/frozen-fruit-smoothies-recipe.html'
p857
sg9
S'[* 1 frozen banana, peeled and sliced, * 2 cups frozen strawberries, raspberries, or cherries, * 1 cup milk, * 1/2 cup plain or vanilla yogurt, * 1/2 cup freshly squeezed orange juice, * 2 to 3 tablespoons honey or to taste]'
p858
sbag2
(g3
g4
NtRp859
(dp860
g7
S'http://www.foodnetwork.com/recipes/emeril-lagasse/fresh-strawberry-milkshakes-recipe.html'
p861
sg9
S'[* 1/2 pound fresh strawberries, hulled and sliced, plus whole strawberries, for garnish, * 2 heaping tablespoons sugar, * 1 teaspoon vanilla extract, * 1 pint vanilla ice cream, * 1/2 cup milk]'
p862
sba.